
D8M_Camera_Test.elf:     file format elf32-littlenios2
D8M_Camera_Test.elf
architecture: nios2:r1, flags 0x00000112:
EXEC_P, HAS_SYMS, D_PAGED
start address 0x00020244

Program Header:
    LOAD off    0x00001000 vaddr 0x00020000 paddr 0x00020000 align 2**12
         filesz 0x00000020 memsz 0x00000020 flags r-x
    LOAD off    0x00001020 vaddr 0x00020020 paddr 0x00020020 align 2**12
         filesz 0x000141b0 memsz 0x000141b0 flags r-x
    LOAD off    0x000151d0 vaddr 0x000341d0 paddr 0x0003653c align 2**12
         filesz 0x0000236c memsz 0x0000236c flags rw-
    LOAD off    0x000178a8 vaddr 0x000388a8 paddr 0x000388a8 align 2**12
         filesz 0x00000000 memsz 0x00000184 flags rw-

Sections:
Idx Name          Size      VMA       LMA       File off  Algn
  0 .entry        00000020  00020000  00020000  00001000  2**5
                  CONTENTS, ALLOC, LOAD, READONLY, CODE
  1 .exceptions   00000224  00020020  00020020  00001020  2**2
                  CONTENTS, ALLOC, LOAD, READONLY, CODE
  2 .text         000135c8  00020244  00020244  00001244  2**2
                  CONTENTS, ALLOC, LOAD, READONLY, CODE
  3 .rodata       000009c4  0003380c  0003380c  0001480c  2**2
                  CONTENTS, ALLOC, LOAD, READONLY, DATA
  4 .rwdata       0000236c  000341d0  0003653c  000151d0  2**2
                  CONTENTS, ALLOC, LOAD, DATA, SMALL_DATA
  5 .bss          00000184  000388a8  000388a8  000178a8  2**2
                  ALLOC, SMALL_DATA
  6 .onchip_memory2_0 00000000  00038a2c  00038a2c  0001753c  2**0
                  CONTENTS
  7 .comment      00000023  00000000  00000000  0001753c  2**0
                  CONTENTS, READONLY
  8 .debug_aranges 000011e0  00000000  00000000  00017560  2**3
                  CONTENTS, READONLY, DEBUGGING
  9 .debug_info   0002d32e  00000000  00000000  00018740  2**0
                  CONTENTS, READONLY, DEBUGGING
 10 .debug_abbrev 0000b777  00000000  00000000  00045a6e  2**0
                  CONTENTS, READONLY, DEBUGGING
 11 .debug_line   0000e0e6  00000000  00000000  000511e5  2**0
                  CONTENTS, READONLY, DEBUGGING
 12 .debug_frame  00002d98  00000000  00000000  0005f2cc  2**2
                  CONTENTS, READONLY, DEBUGGING
 13 .debug_str    000043e8  00000000  00000000  00062064  2**0
                  CONTENTS, READONLY, DEBUGGING
 14 .debug_loc    0001878b  00000000  00000000  0006644c  2**0
                  CONTENTS, READONLY, DEBUGGING
 15 .debug_alt_sim_info 00000060  00000000  00000000  0007ebd8  2**2
                  CONTENTS, READONLY, DEBUGGING
 16 .debug_ranges 00001a78  00000000  00000000  0007ec38  2**3
                  CONTENTS, READONLY, DEBUGGING
 17 .thread_model 00000003  00000000  00000000  0008454e  2**0
                  CONTENTS, READONLY
 18 .cpu          0000000a  00000000  00000000  00084551  2**0
                  CONTENTS, READONLY
 19 .qsys         00000001  00000000  00000000  0008455b  2**0
                  CONTENTS, READONLY
 20 .simulation_enabled 00000001  00000000  00000000  0008455c  2**0
                  CONTENTS, READONLY
 21 .sysid_hash   00000004  00000000  00000000  0008455d  2**0
                  CONTENTS, READONLY
 22 .sysid_base   00000004  00000000  00000000  00084561  2**0
                  CONTENTS, READONLY
 23 .sysid_time   00000004  00000000  00000000  00084565  2**0
                  CONTENTS, READONLY
 24 .stderr_dev   00000009  00000000  00000000  00084569  2**0
                  CONTENTS, READONLY
 25 .stdin_dev    00000009  00000000  00000000  00084572  2**0
                  CONTENTS, READONLY
 26 .stdout_dev   00000009  00000000  00000000  0008457b  2**0
                  CONTENTS, READONLY
 27 .sopc_system_name 00000004  00000000  00000000  00084584  2**0
                  CONTENTS, READONLY
 28 .quartus_project_dir 00000027  00000000  00000000  00084588  2**0
                  CONTENTS, READONLY
 29 .jdi          00004eb7  00000000  00000000  000845af  2**0
                  CONTENTS, READONLY
 30 .sopcinfo     000a058e  00000000  00000000  00089466  2**0
                  CONTENTS, READONLY
SYMBOL TABLE:
00020000 l    d  .entry	00000000 .entry
00020020 l    d  .exceptions	00000000 .exceptions
00020244 l    d  .text	00000000 .text
0003380c l    d  .rodata	00000000 .rodata
000341d0 l    d  .rwdata	00000000 .rwdata
000388a8 l    d  .bss	00000000 .bss
00038a2c l    d  .onchip_memory2_0	00000000 .onchip_memory2_0
00000000 l    d  .comment	00000000 .comment
00000000 l    d  .debug_aranges	00000000 .debug_aranges
00000000 l    d  .debug_info	00000000 .debug_info
00000000 l    d  .debug_abbrev	00000000 .debug_abbrev
00000000 l    d  .debug_line	00000000 .debug_line
00000000 l    d  .debug_frame	00000000 .debug_frame
00000000 l    d  .debug_str	00000000 .debug_str
00000000 l    d  .debug_loc	00000000 .debug_loc
00000000 l    d  .debug_alt_sim_info	00000000 .debug_alt_sim_info
00000000 l    d  .debug_ranges	00000000 .debug_ranges
00000000 l    df *ABS*	00000000 ../D8M_Camera_Test_bsp//obj/HAL/src/crt0.o
0002028c l       .text	00000000 alt_after_alt_main
00000000 l    df *ABS*	00000000 alt_irq_handler.c
00000000 l    df *ABS*	00000000 alt_instruction_exception_entry.c
00000000 l    df *ABS*	00000000 I2C_core.c
00000000 l    df *ABS*	00000000 auto_focus.c
00000000 l    df *ABS*	00000000 main.c
000364f8 l     O .rwdata	00000004 bin_level.4407
00000000 l    df *ABS*	00000000 mipi_bridge_config.c
000341d0 l     O .rwdata	00000034 MipiBridgeReg
00000000 l    df *ABS*	00000000 mipi_camera_config.c
00034204 l     O .rwdata	00000774 MipiCameraReg
00000000 l    df *ABS*	00000000 queue.c
00000000 l    df *ABS*	00000000 lib2-divmod.c
00000000 l    df *ABS*	00000000 adddf3.c
00000000 l    df *ABS*	00000000 divdf3.c
00000000 l    df *ABS*	00000000 muldf3.c
00000000 l    df *ABS*	00000000 floatsidf.c
00000000 l    df *ABS*	00000000 floatunsidf.c
00000000 l    df *ABS*	00000000 libgcc2.c
00000000 l    df *ABS*	00000000 libgcc2.c
00000000 l    df *ABS*	00000000 fopen.c
00000000 l    df *ABS*	00000000 fseek.c
00000000 l    df *ABS*	00000000 fseeko.c
00000000 l    df *ABS*	00000000 fstatr.c
00000000 l    df *ABS*	00000000 getc.c
00000000 l    df *ABS*	00000000 impure.c
00034978 l     O .rwdata	00000424 impure_data
00000000 l    df *ABS*	00000000 int_errno.c
00000000 l    df *ABS*	00000000 makebuf.c
00000000 l    df *ABS*	00000000 malloc.c
00000000 l    df *ABS*	00000000 mallocr.c
00000000 l    df *ABS*	00000000 memset.c
00000000 l    df *ABS*	00000000 openr.c
00000000 l    df *ABS*	00000000 printf.c
00000000 l    df *ABS*	00000000 putchar.c
00000000 l    df *ABS*	00000000 puts.c
00000000 l    df *ABS*	00000000 refill.c
00025e3c l     F .text	0000001c lflush
00000000 l    df *ABS*	00000000 rget.c
00000000 l    df *ABS*	00000000 sbrkr.c
00000000 l    df *ABS*	00000000 stdio.c
00000000 l    df *ABS*	00000000 strlen.c
00000000 l    df *ABS*	00000000 vfprintf.c
00034016 l     O .rodata	00000010 zeroes.4404
000284f0 l     F .text	000000bc __sbprintf
00034026 l     O .rodata	00000010 blanks.4403
00000000 l    df *ABS*	00000000 writer.c
00000000 l    df *ABS*	00000000 wsetup.c
00000000 l    df *ABS*	00000000 closer.c
00000000 l    df *ABS*	00000000 dtoa.c
000287b4 l     F .text	00000200 quorem
00000000 l    df *ABS*	00000000 fflush.c
00000000 l    df *ABS*	00000000 findfp.c
0002a2e4 l     F .text	00000008 __fp_unlock
0002a2f8 l     F .text	0000019c __sinit.part.1
0002a494 l     F .text	00000008 __fp_lock
00000000 l    df *ABS*	00000000 flags.c
00000000 l    df *ABS*	00000000 mallocr.c
00000000 l    df *ABS*	00000000 fvwrite.c
00000000 l    df *ABS*	00000000 fwalk.c
00000000 l    df *ABS*	00000000 isattyr.c
00000000 l    df *ABS*	00000000 locale.c
000351c4 l     O .rwdata	00000020 lc_ctype_charset
000351a4 l     O .rwdata	00000020 lc_message_charset
000351e4 l     O .rwdata	00000038 lconv
00000000 l    df *ABS*	00000000 lseekr.c
00000000 l    df *ABS*	00000000 memchr.c
00000000 l    df *ABS*	00000000 memcpy.c
00000000 l    df *ABS*	00000000 memmove.c
00000000 l    df *ABS*	00000000 mprec.c
00034054 l     O .rodata	0000000c p05.2768
00000000 l    df *ABS*	00000000 putc.c
00000000 l    df *ABS*	00000000 readr.c
00000000 l    df *ABS*	00000000 mallocr.c
00000000 l    df *ABS*	00000000 s_fpclassify.c
00000000 l    df *ABS*	00000000 strcmp.c
00000000 l    df *ABS*	00000000 vfprintf.c
0002cf38 l     F .text	000000fc __sprint_r.part.0
00034188 l     O .rodata	00000010 blanks.4348
00034178 l     O .rodata	00000010 zeroes.4349
0002e4c4 l     F .text	000000bc __sbprintf
00000000 l    df *ABS*	00000000 wbuf.c
00000000 l    df *ABS*	00000000 mallocr.c
00000000 l    df *ABS*	00000000 fclose.c
00000000 l    df *ABS*	00000000 fputwc.c
00000000 l    df *ABS*	00000000 wcrtomb.c
00000000 l    df *ABS*	00000000 wctomb_r.c
00000000 l    df *ABS*	00000000 libgcc2.c
00000000 l    df *ABS*	00000000 libgcc2.c
00000000 l    df *ABS*	00000000 eqdf2.c
00000000 l    df *ABS*	00000000 gedf2.c
00000000 l    df *ABS*	00000000 ledf2.c
00000000 l    df *ABS*	00000000 subdf3.c
00000000 l    df *ABS*	00000000 fixdfsi.c
00000000 l    df *ABS*	00000000 alt_close.c
00030314 l     F .text	00000050 alt_get_errno
00000000 l    df *ABS*	00000000 alt_dev.c
00030434 l     F .text	0000002c alt_dev_null_write
00000000 l    df *ABS*	00000000 alt_errno.c
00000000 l    df *ABS*	00000000 alt_fcntl.c
00030460 l     F .text	00000050 alt_get_errno
00000000 l    df *ABS*	00000000 alt_fstat.c
000305d0 l     F .text	00000050 alt_get_errno
00000000 l    df *ABS*	00000000 alt_isatty.c
000306d0 l     F .text	00000050 alt_get_errno
00000000 l    df *ABS*	00000000 alt_load.c
000307c4 l     F .text	00000068 alt_load_section
00000000 l    df *ABS*	00000000 alt_lseek.c
000308b0 l     F .text	00000050 alt_get_errno
00000000 l    df *ABS*	00000000 alt_main.c
00000000 l    df *ABS*	00000000 alt_malloc_lock.c
00000000 l    df *ABS*	00000000 alt_open.c
00030a98 l     F .text	00000050 alt_get_errno
00030ae8 l     F .text	000000cc alt_file_locked
00000000 l    df *ABS*	00000000 alt_read.c
00030d0c l     F .text	00000050 alt_get_errno
00000000 l    df *ABS*	00000000 alt_release_fd.c
00000000 l    df *ABS*	00000000 alt_sbrk.c
0003652c l     O .rwdata	00000004 heap_end
00000000 l    df *ABS*	00000000 alt_tick.c
00000000 l    df *ABS*	00000000 alt_usleep.c
00000000 l    df *ABS*	00000000 alt_write.c
00031140 l     F .text	00000050 alt_get_errno
00000000 l    df *ABS*	00000000 alt_sys_init.c
00031288 l     F .text	00000038 alt_dev_reg
000353c4 l     O .rwdata	00001060 jtag_uart
00036424 l     O .rwdata	000000c4 uart_0
00000000 l    df *ABS*	00000000 altera_avalon_jtag_uart_fd.c
00000000 l    df *ABS*	00000000 altera_avalon_jtag_uart_init.c
000315a8 l     F .text	0000020c altera_avalon_jtag_uart_irq
000317b4 l     F .text	000000a8 altera_avalon_jtag_uart_timeout
00000000 l    df *ABS*	00000000 altera_avalon_jtag_uart_ioctl.c
00000000 l    df *ABS*	00000000 altera_avalon_jtag_uart_read.c
00000000 l    df *ABS*	00000000 altera_avalon_jtag_uart_write.c
00000000 l    df *ABS*	00000000 altera_avalon_timer_sc.c
00031df4 l     F .text	00000078 alt_avalon_timer_sc_irq
00000000 l    df *ABS*	00000000 altera_avalon_uart_fd.c
00000000 l    df *ABS*	00000000 altera_avalon_uart_init.c
000320b4 l     F .text	0000009c altera_avalon_uart_irq
00032150 l     F .text	000000e4 altera_avalon_uart_rxirq
00032234 l     F .text	00000148 altera_avalon_uart_txirq
00000000 l    df *ABS*	00000000 altera_avalon_uart_read.c
000323d0 l     F .text	00000050 alt_get_errno
00000000 l    df *ABS*	00000000 altera_avalon_uart_write.c
000325fc l     F .text	00000050 alt_get_errno
00000000 l    df *ABS*	00000000 alt_alarm_start.c
00000000 l    df *ABS*	00000000 alt_busy_sleep.c
00000000 l    df *ABS*	00000000 alt_dcache_flush_all.c
00000000 l    df *ABS*	00000000 alt_dev_llist_insert.c
00032ad8 l     F .text	00000050 alt_get_errno
00000000 l    df *ABS*	00000000 alt_do_ctors.c
00000000 l    df *ABS*	00000000 alt_do_dtors.c
00000000 l    df *ABS*	00000000 alt_find_dev.c
00000000 l    df *ABS*	00000000 alt_find_file.c
00000000 l    df *ABS*	00000000 alt_get_fd.c
00000000 l    df *ABS*	00000000 alt_icache_flush_all.c
00000000 l    df *ABS*	00000000 alt_iic.c
00000000 l    df *ABS*	00000000 alt_iic_isr_register.c
00000000 l    df *ABS*	00000000 alt_io_redirect.c
000331e8 l     F .text	000000c4 alt_open_fd
00000000 l    df *ABS*	00000000 alt_irq_vars.c
00000000 l    df *ABS*	00000000 altera_nios2_gen2_irq.c
00000000 l    df *ABS*	00000000 alt_icache_flush.c
00000000 l    df *ABS*	00000000 atexit.c
00000000 l    df *ABS*	00000000 exit.c
00000000 l    df *ABS*	00000000 memcmp.c
00000000 l    df *ABS*	00000000 __atexit.c
00000000 l    df *ABS*	00000000 __call_atexit.c
00000000 l    df *ABS*	00000000 alt_exit.c
000388ec g     O .bss	00000004 alt_instruction_exception_handler
00025d50 g     F .text	00000018 putchar
0002c544 g     F .text	00000074 _mprec_log10
0002c630 g     F .text	0000008c __any_on
0002b1a8 g     F .text	00000054 _isatty_r
00034060 g     O .rodata	00000028 __mprec_tinytens
000309d4 g     F .text	0000007c alt_main
00025d68 g     F .text	000000c0 _puts_r
0003892c g     O .bss	00000100 alt_irq
0002b2d8 g     F .text	00000060 _lseek_r
00021344 g     F .text	000000b0 Focus_Released
000205e4 g     F .text	00000060 ACK_check
0003653c g       *ABS*	00000000 __flash_rwdata_start
00020558 g     F .text	0000008c ACK_single_check
0002a684 g     F .text	000000ac __sflags
0002f740 g     F .text	00000088 .hidden __eqdf2
00021164 g     F .text	000001e0 Focus_Window
00022418 g     F .text	0000006c OV8865_write_AF
00038a2c g       *ABS*	00000000 __alt_heap_start
00022c80 g     F .text	00000064 QUEUE_IsFull
00025d0c g     F .text	0000003c printf
0002eaa8 g     F .text	0000009c _wcrtomb_r
000261e0 g     F .text	0000005c __sseek
0002a634 g     F .text	00000010 __sinit
0002e580 g     F .text	00000140 __swbuf_r
0002b1fc g     F .text	0000007c _setlocale_r
0002a49c g     F .text	00000068 __sfmoreglue
00030a74 g     F .text	00000024 __malloc_unlock
0002b564 g     F .text	0000015c memmove
00020644 g     F .text	00000200 OC_I2C_Write
0002a61c g     F .text	00000018 _cleanup
0002b6c0 g     F .text	000000a8 _Balloc
0002103c g     F .text	00000128 Focus_Init
0002f7c8 g     F .text	000000dc .hidden __gtdf2
00033328 g     F .text	00000024 altera_nios2_gen2_irq_init
00020000 g     F .entry	0000001c __reset
00020020 g       *ABS*	00000000 __flash_exceptions_start
000388b0 g     O .bss	00000002 start_getting
00025010 g     F .text	0000005c _fstat_r
000364f0 g     O .rwdata	00000001 focus_scal
000388b8 g     O .bss	00000004 errno
000260a0 g     F .text	00000014 __srget
0002615c g     F .text	00000008 __seofread
000388d8 g     O .bss	00000004 alt_argv
0003e4e8 g       *ABS*	00000000 _gp
00031110 g     F .text	00000030 usleep
00035244 g     O .rwdata	00000180 alt_fd_list
0002506c g     F .text	00000070 _getc_r
000250dc g     F .text	00000088 getc
00025d48 g     F .text	00000008 _putchar_r
00032c8c g     F .text	00000090 alt_find_dev
0002b41c g     F .text	00000148 memcpy
00020398 g     F .text	0000013c oc_i2c_init_ex
0002a2ec g     F .text	0000000c _cleanup_r
0002489c g     F .text	000000dc .hidden __floatsidf
000332ac g     F .text	0000007c alt_io_redirect
0002f8a4 g     F .text	000000f4 .hidden __ltdf2
0003380c g       *ABS*	00000000 __DTOR_END__
00025e28 g     F .text	00000014 puts
000333dc g     F .text	0000009c alt_exception_cause_generated_bad_addr
0002cde8 g     F .text	00000074 __fpclassifyd
0002c4a0 g     F .text	000000a4 __ratio
0002e4a8 g     F .text	0000001c __vfiprintf_internal
00022c40 g     F .text	00000040 QUEUE_IsEmpty
000319b4 g     F .text	0000021c altera_avalon_jtag_uart_read
00025320 g     F .text	00000014 malloc
00025cdc g     F .text	00000030 _printf_r
00020000 g       *ABS*	00000000 __alt_mem_onchip_memory2_0
00022f34 g     F .text	00000064 .hidden __udivsi3
00030720 g     F .text	000000a4 isatty
000340b0 g     O .rodata	000000c8 __mprec_tens
0002b278 g     F .text	0000000c __locale_charset
0003334c g     F .text	00000090 alt_icache_flush
000388c4 g     O .bss	00000004 __malloc_top_pad
00022e08 g     F .text	00000034 QUEUE_Empty
00022504 g     F .text	000000d0 OV8865_FOCUS_Move_to
0003650c g     O .rwdata	00000004 __mb_cur_max
0002b2a8 g     F .text	0000000c _localeconv_r
0002bacc g     F .text	0000003c __i2b
0002ab64 g     F .text	000004bc __sfvwrite_r
00022d78 g     F .text	00000090 QUEUE_Pop
000260b4 g     F .text	00000054 _sbrk_r
0002c824 g     F .text	00000060 _read_r
000364ee g     O .rwdata	00000002 focus_height
00036524 g     O .rwdata	00000004 alt_max_fd
0002e79c g     F .text	000000f0 _fclose_r
000223ac g     F .text	0000006c OV8865_write_cmos_sensor_8
0002a2b4 g     F .text	00000030 fflush
000388c0 g     O .bss	00000004 __malloc_max_sbrked_mem
00022ff0 g     F .text	000008ac .hidden __adddf3
0002c248 g     F .text	0000010c __b2d
0002f208 g     F .text	00000538 .hidden __umoddi3
00030900 g     F .text	000000d4 lseek
000364fc g     O .rwdata	00000004 _global_impure_ptr
0002c884 g     F .text	00000564 _realloc_r
00038a2c g       *ABS*	00000000 __bss_end
000330f8 g     F .text	000000f0 alt_iic_isr_register
00031008 g     F .text	00000108 alt_tick
0002ec90 g     F .text	00000578 .hidden __udivdi3
0002ea04 g     F .text	00000024 _fputwc_r
00034088 g     O .rodata	00000028 __mprec_bigtens
0002b8b0 g     F .text	00000104 __s2b
00024978 g     F .text	000000a8 .hidden __floatunsidf
000364ea g     O .rwdata	00000002 video_h
0002bf88 g     F .text	00000060 __mcmp
00032008 g     F .text	000000ac altera_avalon_uart_init
000217fc g     F .text	0000004c UART_send_u8
0002a654 g     F .text	00000018 __fp_lock_all
000330ac g     F .text	0000004c alt_ic_irq_enabled
000213f4 g     F .text	000000b8 mipi_clear_error
00020bac g     F .text	00000210 OC_I2CL_Write
00030f6c g     F .text	0000009c alt_alarm_stop
000388e8 g     O .bss	00000004 alt_irq_active
00024bb0 g     F .text	00000444 _fseeko_r
00020844 g     F .text	00000064 ACK_judge_for_read
000200fc g     F .exceptions	000000d4 alt_irq_handler
00022680 g     F .text	00000098 OV8865SetGain
0003521c g     O .rwdata	00000028 alt_dev_null
00020290 g     F .text	00000058 Write32_Data
00032a90 g     F .text	00000048 alt_dcache_flush_all
0002b9b4 g     F .text	00000068 __hi0bits
00030294 g     F .text	00000080 .hidden __fixdfsi
000364f1 g     O .rwdata	00000001 focus_scal_f
0003653c g       *ABS*	00000000 __ram_rwdata_end
0003651c g     O .rwdata	00000008 alt_dev_list
00031190 g     F .text	000000f8 write
0002c6bc g     F .text	000000a0 _putc_r
000341d0 g       *ABS*	00000000 __ram_rodata_end
00030620 g     F .text	000000b0 fstat
0002f8a4 g     F .text	000000f4 .hidden __ledf2
000388a8 g     O .bss	00000001 rxdata
0002bd00 g     F .text	00000140 __pow5mult
0002d04c g     F .text	0000145c ___vfiprintf_internal_r
000388d0 g     O .bss	00000004 __nlocale_changed
00022f98 g     F .text	00000058 .hidden __umodsi3
00021544 g     F .text	00000178 mipi_show_error_info_more
00038a2c g       *ABS*	00000000 end
00024ff4 g     F .text	0000001c fseeko
0003264c g     F .text	000001ac altera_avalon_uart_write
00024b94 g     F .text	0000001c fseek
000314e0 g     F .text	000000c8 altera_avalon_jtag_uart_init
000201d0 g     F .exceptions	00000074 alt_instruction_exception_entry
0003380c g       *ABS*	00000000 __CTOR_LIST__
00040000 g       *ABS*	00000000 __alt_stack_pointer
00031e6c g     F .text	0000008c alt_avalon_timer_sc_init
00031f58 g     F .text	00000060 altera_avalon_uart_write_fd
00024a20 g     F .text	00000064 .hidden __clzsi2
00031fb8 g     F .text	00000050 altera_avalon_uart_close_fd
00031bd0 g     F .text	00000224 altera_avalon_jtag_uart_write
000364f4 g     O .rwdata	00000001 txdata
0002a644 g     F .text	00000004 __sfp_lock_acquire
0002b338 g     F .text	000000e4 memchr
000262dc g     F .text	000021f8 ___vfprintf_internal_r
0002a854 g     F .text	00000310 _free_r
0002b284 g     F .text	00000010 __locale_mb_cur_max
00033658 g     F .text	00000180 __call_exitprocs
0002602c g     F .text	00000074 __srget_r
000388b4 g     O .bss	00000004 pointer
000388cc g     O .bss	00000004 __mlocale_changed
00036504 g     O .rwdata	00000004 __malloc_sbrk_base
00020244 g     F .text	0000004c _start
000388e0 g     O .bss	00000004 _alt_tick_rate
0002be40 g     F .text	00000148 __lshift
00022ce4 g     F .text	00000094 QUEUE_Push
000388e4 g     O .bss	00000004 _alt_nticks
00030d5c g     F .text	000000fc read
000312f8 g     F .text	00000084 alt_sys_init
00025c7c g     F .text	00000060 _open_r
00033540 g     F .text	00000118 __register_exitproc
00038918 g     O .bss	00000014 buffer
00022348 g     F .text	00000064 OV8865_read_cmos_sensor_8
0002bb08 g     F .text	000001f8 __multiply
0003185c g     F .text	00000068 altera_avalon_jtag_uart_close
00022134 g     F .text	0000006c MipiBridgeRegWrite
000341d0 g       *ABS*	00000000 __ram_rwdata_start
0003380c g       *ABS*	00000000 __ram_rodata_start
000388f0 g     O .bss	00000028 __malloc_current_mallinfo
0002c354 g     F .text	0000014c __d2b
0003137c g     F .text	00000060 altera_avalon_jtag_uart_read_fd
00032e30 g     F .text	000000b4 alt_get_fd
00032938 g     F .text	00000158 alt_busy_sleep
000217c0 g     F .text	0000003c IRQ_init
00028760 g     F .text	00000054 _close_r
000334c4 g     F .text	0000007c memcmp
0003143c g     F .text	00000050 altera_avalon_jtag_uart_close_fd
00038a2c g       *ABS*	00000000 __alt_stack_base
0003148c g     F .text	00000054 altera_avalon_jtag_uart_ioctl_fd
0002860c g     F .text	00000154 __swsetup_r
00020340 g     F .text	00000058 oc_i2c_init
0002389c g     F .text	000008e8 .hidden __divdf3
0002a504 g     F .text	00000118 __sfp
0002c5b8 g     F .text	00000078 __copybits
00034d9c g     O .rwdata	00000408 __malloc_av_
0002a650 g     F .text	00000004 __sinit_lock_release
00024184 g     F .text	00000718 .hidden __muldf3
00026108 g     F .text	00000054 __sread
00032d1c g     F .text	00000114 alt_find_file
00032b28 g     F .text	000000a4 alt_dev_llist_insert
00030a50 g     F .text	00000024 __malloc_lock
00030ebc g     F .text	000000b0 sbrk
00022994 g     F .text	00000208 MipiCameraInit
000220e8 g     F .text	0000004c nSWAP16
0002a258 g     F .text	0000005c _fflush_r
0002e6d8 g     F .text	000000c4 _calloc_r
00022b9c g     F .text	00000070 QUEUE_New
00024b78 g     F .text	00000018 fopen
000388a8 g       *ABS*	00000000 __bss_start
00025b54 g     F .text	00000128 memset
00021918 g     F .text	000007d0 main
000388dc g     O .bss	00000004 alt_envp
000388bc g     O .bss	00000004 __malloc_max_total_mem
000313dc g     F .text	00000060 altera_avalon_jtag_uart_write_fd
0002e6c0 g     F .text	00000018 __swbuf
0002623c g     F .text	00000008 __sclose
00040000 g       *ABS*	00000000 __alt_heap_limit
0002e88c g     F .text	00000014 fclose
000289b4 g     F .text	00001688 _dtoa_r
00025348 g     F .text	0000080c _malloc_r
0002ec04 g     F .text	00000030 __ascii_wctomb
00036528 g     O .rwdata	00000004 alt_errno
0002b020 g     F .text	000000c4 _fwalk
0002c75c g     F .text	000000c8 putc
00022e3c g     F .text	00000084 .hidden __divsi3
000204d4 g     F .text	00000084 oc_i2c_uninit
0002a730 g     F .text	00000124 _malloc_trim_r
0003380c g       *ABS*	00000000 __CTOR_END__
000227d4 g     F .text	000001c0 MIPI_BIN_LEVEL
0002ce5c g     F .text	000000dc strcmp
0003380c g       *ABS*	00000000 __flash_rodata_start
0003380c g       *ABS*	00000000 __DTOR_LIST__
0002f740 g     F .text	00000088 .hidden __nedf2
000312c0 g     F .text	00000038 alt_irq_init
00021744 g     F .text	0000007c IRQ_UART_Interrupts
00030e58 g     F .text	00000064 alt_release_fd
00022218 g     F .text	00000130 MipiBridgeInit
00033ecc g     O .rodata	00000100 .hidden __clz_tab
000388c8 g     O .bss	00000004 _PathLocale
00033478 g     F .text	00000014 atexit
000285ac g     F .text	00000060 _write_r
0002b2b4 g     F .text	00000018 setlocale
00036500 g     O .rwdata	00000004 _impure_ptr
000388d4 g     O .bss	00000004 alt_argc
000221a0 g     F .text	00000078 MipiBridgeRegRead
0002a03c g     F .text	0000021c __sflush_r
00032c2c g     F .text	00000060 _do_dtors
0002b2a0 g     F .text	00000008 __locale_cjk_lang
00024b90 g     F .text	00000004 _fseek_r
000364e8 g     O .rwdata	00000002 video_w
00025e58 g     F .text	000001d4 __srefill_r
00020020 g       .exceptions	00000000 alt_irq_entry
0002c1e4 g     F .text	00000064 __ulp
0002a66c g     F .text	00000018 __fp_unlock_all
00036514 g     O .rwdata	00000008 alt_fs_list
000202e8 g     F .text	00000058 Read32_Data
000208a8 g     F .text	000001cc OC_I2C_Read
00020020 g       *ABS*	00000000 __ram_exceptions_start
0002b2cc g     F .text	0000000c localeconv
00032f18 g     F .text	00000050 alt_ic_isr_register
0003653c g       *ABS*	00000000 _edata
00031ef8 g     F .text	00000060 altera_avalon_uart_read_fd
00038a2c g       *ABS*	00000000 _end
00022718 g     F .text	000000bc OV8865ReadExposure
0002e8a0 g     F .text	00000164 __fputwc
00020244 g       *ABS*	00000000 __ram_exceptions_end
000318c4 g     F .text	000000f0 altera_avalon_jtag_uart_ioctl
00033008 g     F .text	000000a4 alt_ic_irq_disable
000388ac g     O .bss	00000004 send_end
00026164 g     F .text	0000007c __swrite
00036508 g     O .rwdata	00000004 __malloc_trim_threshold
00020a74 g     F .text	00000138 OC_I2C_Read_Continue
0002b294 g     F .text	0000000c __locale_msgcharset
0003348c g     F .text	00000038 exit
000364f2 g     O .rwdata	00000001 focus_th
0002b0e4 g     F .text	000000c4 _fwalk_reent
0002bfe8 g     F .text	000001fc __mdiff
00022ec0 g     F .text	00000074 .hidden __modsi3
00040000 g       *ABS*	00000000 __alt_data_end
00020020 g     F .exceptions	00000000 alt_exception
0002a648 g     F .text	00000004 __sfp_lock_release
000214ac g     F .text	00000098 mipi_show_error_info
00022c0c g     F .text	00000034 QUEUE_Delete
0003237c g     F .text	00000054 altera_avalon_uart_close
00020dbc g     F .text	00000280 OC_I2CL_Read
00024a84 g     F .text	000000f4 _fopen_r
000337d8 g     F .text	00000034 _exit
000327f8 g     F .text	00000140 alt_alarm_start
00025164 g     F .text	000001bc __smakebuf_r
00026244 g     F .text	00000098 strlen
00021848 g     F .text	000000d0 UART_send_u32
00030bb4 g     F .text	00000158 open
0002f7c8 g     F .text	000000dc .hidden __gedf2
00036510 g     O .rwdata	00000004 __wctomb
0002d034 g     F .text	00000018 __sprint_r
00032ee4 g     F .text	00000034 alt_icache_flush_all
000225d4 g     F .text	000000ac OV8865SetExposure
00036538 g     O .rwdata	00000004 alt_priority_mask
000364ec g     O .rwdata	00000002 focus_width
00032f68 g     F .text	000000a0 alt_ic_irq_enable
000284d4 g     F .text	0000001c __vfprintf_internal
00032420 g     F .text	000001dc altera_avalon_uart_read
0002ec34 g     F .text	0000005c _wctomb_r
000216bc g     F .text	00000088 MIPI_Init
0002f998 g     F .text	000008fc .hidden __subdf3
000304b0 g     F .text	00000120 fcntl
0002ba1c g     F .text	000000b0 __lo0bits
00036530 g     O .rwdata	00000008 alt_alarm_list
00032bcc g     F .text	00000060 _do_ctors
0002eb44 g     F .text	000000c0 wcrtomb
00030364 g     F .text	000000d0 close
00022484 g     F .text	00000080 OV8865_read_AF
0003082c g     F .text	00000084 alt_load
0002ea28 g     F .text	00000080 fputwc
00025334 g     F .text	00000014 free
0002a64c g     F .text	00000004 __sinit_lock_acquire
0002b790 g     F .text	00000120 __multadd
0002b768 g     F .text	00000028 _Bfree



Disassembly of section .entry:

00020000 <__reset>:
   20000:	00840014 	movui	r2,4096
   20004:	1001483a 	initi	r2
   20008:	10bff804 	addi	r2,r2,-32
   2000c:	00bffd16 	blt	zero,r2,20004 <__alt_data_end+0xfffe0004>
   20010:	004000b4 	movhi	at,2
   20014:	08409114 	ori	at,at,580
   20018:	0800683a 	jmp	at
   2001c:	00000000 	call	0 <__alt_mem_onchip_memory2_0-0x20000>

Disassembly of section .exceptions:

00020020 <alt_exception>:
   20020:	deffed04 	addi	sp,sp,-76
   20024:	dfc00015 	stw	ra,0(sp)
   20028:	d8400215 	stw	at,8(sp)
   2002c:	d8800315 	stw	r2,12(sp)
   20030:	d8c00415 	stw	r3,16(sp)
   20034:	d9000515 	stw	r4,20(sp)
   20038:	d9400615 	stw	r5,24(sp)
   2003c:	d9800715 	stw	r6,28(sp)
   20040:	d9c00815 	stw	r7,32(sp)
   20044:	000b307a 	rdctl	r5,estatus
   20048:	da000915 	stw	r8,36(sp)
   2004c:	da400a15 	stw	r9,40(sp)
   20050:	da800b15 	stw	r10,44(sp)
   20054:	dac00c15 	stw	r11,48(sp)
   20058:	db000d15 	stw	r12,52(sp)
   2005c:	db400e15 	stw	r13,56(sp)
   20060:	db800f15 	stw	r14,60(sp)
   20064:	dbc01015 	stw	r15,64(sp)
   20068:	d9401115 	stw	r5,68(sp)
   2006c:	ebffff04 	addi	r15,ea,-4
   20070:	dbc01215 	stw	r15,72(sp)
   20074:	0009313a 	rdctl	r4,ipending
   20078:	2880004c 	andi	r2,r5,1
   2007c:	10000326 	beq	r2,zero,2008c <alt_exception+0x6c>
   20080:	20000226 	beq	r4,zero,2008c <alt_exception+0x6c>
   20084:	00200fc0 	call	200fc <alt_irq_handler>
   20088:	00000706 	br	200a8 <alt_exception+0x88>
   2008c:	df401215 	stw	ea,72(sp)
   20090:	e8bfff17 	ldw	r2,-4(ea)
   20094:	e93fff04 	addi	r4,ea,-4
   20098:	00201d00 	call	201d0 <alt_instruction_exception_entry>
   2009c:	1000021e 	bne	r2,zero,200a8 <alt_exception+0x88>
   200a0:	ebffff04 	addi	r15,ea,-4
   200a4:	dbc01215 	stw	r15,72(sp)
   200a8:	d9401117 	ldw	r5,68(sp)
   200ac:	df401217 	ldw	ea,72(sp)
   200b0:	dfc00017 	ldw	ra,0(sp)
   200b4:	2801707a 	wrctl	estatus,r5
   200b8:	d8400217 	ldw	at,8(sp)
   200bc:	d8800317 	ldw	r2,12(sp)
   200c0:	d8c00417 	ldw	r3,16(sp)
   200c4:	d9000517 	ldw	r4,20(sp)
   200c8:	d9400617 	ldw	r5,24(sp)
   200cc:	d9800717 	ldw	r6,28(sp)
   200d0:	d9c00817 	ldw	r7,32(sp)
   200d4:	da000917 	ldw	r8,36(sp)
   200d8:	da400a17 	ldw	r9,40(sp)
   200dc:	da800b17 	ldw	r10,44(sp)
   200e0:	dac00c17 	ldw	r11,48(sp)
   200e4:	db000d17 	ldw	r12,52(sp)
   200e8:	db400e17 	ldw	r13,56(sp)
   200ec:	db800f17 	ldw	r14,60(sp)
   200f0:	dbc01017 	ldw	r15,64(sp)
   200f4:	dec01304 	addi	sp,sp,76
   200f8:	ef80083a 	eret

000200fc <alt_irq_handler>:
   200fc:	defff904 	addi	sp,sp,-28
   20100:	dfc00615 	stw	ra,24(sp)
   20104:	df000515 	stw	fp,20(sp)
   20108:	df000504 	addi	fp,sp,20
   2010c:	0001883a 	nop
   20110:	0005313a 	rdctl	r2,ipending
   20114:	e0bffe15 	stw	r2,-8(fp)
   20118:	e0bffe17 	ldw	r2,-8(fp)
   2011c:	e0bffb15 	stw	r2,-20(fp)
   20120:	e03ffd15 	stw	zero,-12(fp)
   20124:	00800044 	movi	r2,1
   20128:	e0bffc15 	stw	r2,-16(fp)
   2012c:	e0fffb17 	ldw	r3,-20(fp)
   20130:	e0bffc17 	ldw	r2,-16(fp)
   20134:	1884703a 	and	r2,r3,r2
   20138:	10001426 	beq	r2,zero,2018c <alt_irq_handler+0x90>
   2013c:	00800134 	movhi	r2,4
   20140:	10a24b04 	addi	r2,r2,-30420
   20144:	e0fffd17 	ldw	r3,-12(fp)
   20148:	180690fa 	slli	r3,r3,3
   2014c:	10c5883a 	add	r2,r2,r3
   20150:	10c00017 	ldw	r3,0(r2)
   20154:	00800134 	movhi	r2,4
   20158:	10a24b04 	addi	r2,r2,-30420
   2015c:	e13ffd17 	ldw	r4,-12(fp)
   20160:	200890fa 	slli	r4,r4,3
   20164:	1105883a 	add	r2,r2,r4
   20168:	10800104 	addi	r2,r2,4
   2016c:	10800017 	ldw	r2,0(r2)
   20170:	1009883a 	mov	r4,r2
   20174:	183ee83a 	callr	r3
   20178:	0001883a 	nop
   2017c:	0005313a 	rdctl	r2,ipending
   20180:	e0bfff15 	stw	r2,-4(fp)
   20184:	e0bfff17 	ldw	r2,-4(fp)
   20188:	00000706 	br	201a8 <alt_irq_handler+0xac>
   2018c:	e0bffc17 	ldw	r2,-16(fp)
   20190:	1085883a 	add	r2,r2,r2
   20194:	e0bffc15 	stw	r2,-16(fp)
   20198:	e0bffd17 	ldw	r2,-12(fp)
   2019c:	10800044 	addi	r2,r2,1
   201a0:	e0bffd15 	stw	r2,-12(fp)
   201a4:	003fe106 	br	2012c <__alt_data_end+0xfffe012c>
   201a8:	e0bffb15 	stw	r2,-20(fp)
   201ac:	e0bffb17 	ldw	r2,-20(fp)
   201b0:	103fdb1e 	bne	r2,zero,20120 <__alt_data_end+0xfffe0120>
   201b4:	0001883a 	nop
   201b8:	0001883a 	nop
   201bc:	e037883a 	mov	sp,fp
   201c0:	dfc00117 	ldw	ra,4(sp)
   201c4:	df000017 	ldw	fp,0(sp)
   201c8:	dec00204 	addi	sp,sp,8
   201cc:	f800283a 	ret

000201d0 <alt_instruction_exception_entry>:
   201d0:	defffb04 	addi	sp,sp,-20
   201d4:	dfc00415 	stw	ra,16(sp)
   201d8:	df000315 	stw	fp,12(sp)
   201dc:	df000304 	addi	fp,sp,12
   201e0:	e13fff15 	stw	r4,-4(fp)
   201e4:	000531fa 	rdctl	r2,exception
   201e8:	e0bffd15 	stw	r2,-12(fp)
   201ec:	e0bffd17 	ldw	r2,-12(fp)
   201f0:	10801f0c 	andi	r2,r2,124
   201f4:	1004d0ba 	srli	r2,r2,2
   201f8:	e0bffd15 	stw	r2,-12(fp)
   201fc:	0005333a 	rdctl	r2,badaddr
   20200:	e0bffe15 	stw	r2,-8(fp)
   20204:	d0a90117 	ldw	r2,-23548(gp)
   20208:	10000726 	beq	r2,zero,20228 <alt_instruction_exception_entry+0x58>
   2020c:	d0a90117 	ldw	r2,-23548(gp)
   20210:	e0fffd17 	ldw	r3,-12(fp)
   20214:	e1bffe17 	ldw	r6,-8(fp)
   20218:	e17fff17 	ldw	r5,-4(fp)
   2021c:	1809883a 	mov	r4,r3
   20220:	103ee83a 	callr	r2
   20224:	00000206 	br	20230 <alt_instruction_exception_entry+0x60>
   20228:	003da03a 	break	0
   2022c:	0005883a 	mov	r2,zero
   20230:	e037883a 	mov	sp,fp
   20234:	dfc00117 	ldw	ra,4(sp)
   20238:	df000017 	ldw	fp,0(sp)
   2023c:	dec00204 	addi	sp,sp,8
   20240:	f800283a 	ret

Disassembly of section .text:

00020244 <_start>:
   20244:	00820014 	movui	r2,2048
   20248:	10000033 	initd	0(r2)
   2024c:	10bff804 	addi	r2,r2,-32
   20250:	00bffd16 	blt	zero,r2,20248 <__alt_data_end+0xfffe0248>
   20254:	06c00134 	movhi	sp,4
   20258:	dec00014 	ori	sp,sp,0
   2025c:	068000f4 	movhi	gp,3
   20260:	d6b93a14 	ori	gp,gp,58600
   20264:	008000f4 	movhi	r2,3
   20268:	10a22a14 	ori	r2,r2,34984
   2026c:	00c000f4 	movhi	r3,3
   20270:	18e28b14 	ori	r3,r3,35372
   20274:	10c00326 	beq	r2,r3,20284 <_start+0x40>
   20278:	10000015 	stw	zero,0(r2)
   2027c:	10800104 	addi	r2,r2,4
   20280:	10fffd36 	bltu	r2,r3,20278 <__alt_data_end+0xfffe0278>
   20284:	003082c0 	call	3082c <alt_load>
   20288:	00309d40 	call	309d4 <alt_main>

0002028c <alt_after_alt_main>:
   2028c:	003fff06 	br	2028c <__alt_data_end+0xfffe028c>

00020290 <Write32_Data>:
   20290:	defffb04 	addi	sp,sp,-20
   20294:	df000415 	stw	fp,16(sp)
   20298:	df000404 	addi	fp,sp,16
   2029c:	e13ffd15 	stw	r4,-12(fp)
   202a0:	e17ffe15 	stw	r5,-8(fp)
   202a4:	e1bfff15 	stw	r6,-4(fp)
   202a8:	e0bffe17 	ldw	r2,-8(fp)
   202ac:	1085883a 	add	r2,r2,r2
   202b0:	1085883a 	add	r2,r2,r2
   202b4:	1007883a 	mov	r3,r2
   202b8:	e0bffd17 	ldw	r2,-12(fp)
   202bc:	1885883a 	add	r2,r3,r2
   202c0:	1007883a 	mov	r3,r2
   202c4:	e0bfff17 	ldw	r2,-4(fp)
   202c8:	18800035 	stwio	r2,0(r3)
   202cc:	00800044 	movi	r2,1
   202d0:	e0bffc15 	stw	r2,-16(fp)
   202d4:	e0bffc17 	ldw	r2,-16(fp)
   202d8:	e037883a 	mov	sp,fp
   202dc:	df000017 	ldw	fp,0(sp)
   202e0:	dec00104 	addi	sp,sp,4
   202e4:	f800283a 	ret

000202e8 <Read32_Data>:
   202e8:	defffb04 	addi	sp,sp,-20
   202ec:	df000415 	stw	fp,16(sp)
   202f0:	df000404 	addi	fp,sp,16
   202f4:	e13ffd15 	stw	r4,-12(fp)
   202f8:	e17ffe15 	stw	r5,-8(fp)
   202fc:	e1bfff15 	stw	r6,-4(fp)
   20300:	e0bffe17 	ldw	r2,-8(fp)
   20304:	1085883a 	add	r2,r2,r2
   20308:	1085883a 	add	r2,r2,r2
   2030c:	1007883a 	mov	r3,r2
   20310:	e0bffd17 	ldw	r2,-12(fp)
   20314:	1885883a 	add	r2,r3,r2
   20318:	10c00037 	ldwio	r3,0(r2)
   2031c:	e0bfff17 	ldw	r2,-4(fp)
   20320:	10c00015 	stw	r3,0(r2)
   20324:	00800044 	movi	r2,1
   20328:	e0bffc15 	stw	r2,-16(fp)
   2032c:	e0bffc17 	ldw	r2,-16(fp)
   20330:	e037883a 	mov	sp,fp
   20334:	df000017 	ldw	fp,0(sp)
   20338:	dec00104 	addi	sp,sp,4
   2033c:	f800283a 	ret

00020340 <oc_i2c_init>:
   20340:	defffa04 	addi	sp,sp,-24
   20344:	dfc00515 	stw	ra,20(sp)
   20348:	df000415 	stw	fp,16(sp)
   2034c:	df000404 	addi	fp,sp,16
   20350:	e13fff15 	stw	r4,-4(fp)
   20354:	0080bef4 	movhi	r2,763
   20358:	10bc2004 	addi	r2,r2,-3968
   2035c:	e0bffc15 	stw	r2,-16(fp)
   20360:	008001b4 	movhi	r2,6
   20364:	1086a004 	addi	r2,r2,6784
   20368:	e0bffd15 	stw	r2,-12(fp)
   2036c:	e1bffd17 	ldw	r6,-12(fp)
   20370:	e17ffc17 	ldw	r5,-16(fp)
   20374:	e13fff17 	ldw	r4,-4(fp)
   20378:	00203980 	call	20398 <oc_i2c_init_ex>
   2037c:	e0bffe15 	stw	r2,-8(fp)
   20380:	e0bffe17 	ldw	r2,-8(fp)
   20384:	e037883a 	mov	sp,fp
   20388:	dfc00117 	ldw	ra,4(sp)
   2038c:	df000017 	ldw	fp,0(sp)
   20390:	dec00204 	addi	sp,sp,8
   20394:	f800283a 	ret

00020398 <oc_i2c_init_ex>:
   20398:	defff604 	addi	sp,sp,-40
   2039c:	dfc00915 	stw	ra,36(sp)
   203a0:	df000815 	stw	fp,32(sp)
   203a4:	df000804 	addi	fp,sp,32
   203a8:	e13ffd15 	stw	r4,-12(fp)
   203ac:	e17ffe15 	stw	r5,-8(fp)
   203b0:	e1bfff15 	stw	r6,-4(fp)
   203b4:	00800044 	movi	r2,1
   203b8:	e0bff815 	stw	r2,-32(fp)
   203bc:	00bfe004 	movi	r2,-128
   203c0:	e0bff905 	stb	r2,-28(fp)
   203c4:	e0bfff17 	ldw	r2,-4(fp)
   203c8:	10800164 	muli	r2,r2,5
   203cc:	100b883a 	mov	r5,r2
   203d0:	e13ffe17 	ldw	r4,-8(fp)
   203d4:	0022e3c0 	call	22e3c <__divsi3>
   203d8:	10bfffc4 	addi	r2,r2,-1
   203dc:	e0bffa15 	stw	r2,-24(fp)
   203e0:	e0bffa17 	ldw	r2,-24(fp)
   203e4:	e0bffb05 	stb	r2,-20(fp)
   203e8:	e0bffa17 	ldw	r2,-24(fp)
   203ec:	1005d23a 	srai	r2,r2,8
   203f0:	e0bffb45 	stb	r2,-19(fp)
   203f4:	e0bffd17 	ldw	r2,-12(fp)
   203f8:	e0fffb03 	ldbu	r3,-20(fp)
   203fc:	10c00035 	stwio	r3,0(r2)
   20400:	e0bffd17 	ldw	r2,-12(fp)
   20404:	10800104 	addi	r2,r2,4
   20408:	1007883a 	mov	r3,r2
   2040c:	e0bffb43 	ldbu	r2,-19(fp)
   20410:	18800035 	stwio	r2,0(r3)
   20414:	e0bffd17 	ldw	r2,-12(fp)
   20418:	10800204 	addi	r2,r2,8
   2041c:	1007883a 	mov	r3,r2
   20420:	e0bff903 	ldbu	r2,-28(fp)
   20424:	18800035 	stwio	r2,0(r3)
   20428:	e0bff817 	ldw	r2,-32(fp)
   2042c:	10000826 	beq	r2,zero,20450 <oc_i2c_init_ex+0xb8>
   20430:	e0bffd17 	ldw	r2,-12(fp)
   20434:	10800037 	ldwio	r2,0(r2)
   20438:	e0bffc15 	stw	r2,-16(fp)
   2043c:	e0bffc17 	ldw	r2,-16(fp)
   20440:	10c03fcc 	andi	r3,r2,255
   20444:	e0bffb03 	ldbu	r2,-20(fp)
   20448:	18800126 	beq	r3,r2,20450 <oc_i2c_init_ex+0xb8>
   2044c:	e03ff815 	stw	zero,-32(fp)
   20450:	e0bff817 	ldw	r2,-32(fp)
   20454:	10000926 	beq	r2,zero,2047c <oc_i2c_init_ex+0xe4>
   20458:	e0bffd17 	ldw	r2,-12(fp)
   2045c:	10800104 	addi	r2,r2,4
   20460:	10800037 	ldwio	r2,0(r2)
   20464:	e0bffc15 	stw	r2,-16(fp)
   20468:	e0bffc17 	ldw	r2,-16(fp)
   2046c:	10c03fcc 	andi	r3,r2,255
   20470:	e0bffb43 	ldbu	r2,-19(fp)
   20474:	18800126 	beq	r3,r2,2047c <oc_i2c_init_ex+0xe4>
   20478:	e03ff815 	stw	zero,-32(fp)
   2047c:	e0bff817 	ldw	r2,-32(fp)
   20480:	10000926 	beq	r2,zero,204a8 <oc_i2c_init_ex+0x110>
   20484:	e0bffd17 	ldw	r2,-12(fp)
   20488:	10800204 	addi	r2,r2,8
   2048c:	10800037 	ldwio	r2,0(r2)
   20490:	e0bffc15 	stw	r2,-16(fp)
   20494:	e0bffc17 	ldw	r2,-16(fp)
   20498:	10c03fcc 	andi	r3,r2,255
   2049c:	e0bff903 	ldbu	r2,-28(fp)
   204a0:	18800126 	beq	r3,r2,204a8 <oc_i2c_init_ex+0x110>
   204a4:	e03ff815 	stw	zero,-32(fp)
   204a8:	e0bff817 	ldw	r2,-32(fp)
   204ac:	1000031e 	bne	r2,zero,204bc <oc_i2c_init_ex+0x124>
   204b0:	010000f4 	movhi	r4,3
   204b4:	210e0304 	addi	r4,r4,14348
   204b8:	0025e280 	call	25e28 <puts>
   204bc:	e0bff817 	ldw	r2,-32(fp)
   204c0:	e037883a 	mov	sp,fp
   204c4:	dfc00117 	ldw	ra,4(sp)
   204c8:	df000017 	ldw	fp,0(sp)
   204cc:	dec00204 	addi	sp,sp,8
   204d0:	f800283a 	ret

000204d4 <oc_i2c_uninit>:
   204d4:	defffa04 	addi	sp,sp,-24
   204d8:	dfc00515 	stw	ra,20(sp)
   204dc:	df000415 	stw	fp,16(sp)
   204e0:	df000404 	addi	fp,sp,16
   204e4:	e13fff15 	stw	r4,-4(fp)
   204e8:	00800044 	movi	r2,1
   204ec:	e0bffc15 	stw	r2,-16(fp)
   204f0:	e03ffd05 	stb	zero,-12(fp)
   204f4:	e0bfff17 	ldw	r2,-4(fp)
   204f8:	10800204 	addi	r2,r2,8
   204fc:	1007883a 	mov	r3,r2
   20500:	e0bffd03 	ldbu	r2,-12(fp)
   20504:	18800035 	stwio	r2,0(r3)
   20508:	e0bfff17 	ldw	r2,-4(fp)
   2050c:	10800204 	addi	r2,r2,8
   20510:	10800037 	ldwio	r2,0(r2)
   20514:	e0bffe15 	stw	r2,-8(fp)
   20518:	e0bffe17 	ldw	r2,-8(fp)
   2051c:	10c03fcc 	andi	r3,r2,255
   20520:	e0bffd03 	ldbu	r2,-12(fp)
   20524:	18800126 	beq	r3,r2,2052c <oc_i2c_uninit+0x58>
   20528:	e03ffc15 	stw	zero,-16(fp)
   2052c:	e0bffc17 	ldw	r2,-16(fp)
   20530:	1000031e 	bne	r2,zero,20540 <oc_i2c_uninit+0x6c>
   20534:	010000f4 	movhi	r4,3
   20538:	210e0e04 	addi	r4,r4,14392
   2053c:	0025e280 	call	25e28 <puts>
   20540:	e0bffc17 	ldw	r2,-16(fp)
   20544:	e037883a 	mov	sp,fp
   20548:	dfc00117 	ldw	ra,4(sp)
   2054c:	df000017 	ldw	fp,0(sp)
   20550:	dec00204 	addi	sp,sp,8
   20554:	f800283a 	ret

00020558 <ACK_single_check>:
   20558:	defffb04 	addi	sp,sp,-20
   2055c:	dfc00415 	stw	ra,16(sp)
   20560:	df000315 	stw	fp,12(sp)
   20564:	df000304 	addi	fp,sp,12
   20568:	e13fff15 	stw	r4,-4(fp)
   2056c:	00800044 	movi	r2,1
   20570:	e0bffd15 	stw	r2,-12(fp)
   20574:	01003e84 	movi	r4,250
   20578:	00311100 	call	31110 <usleep>
   2057c:	e0bfff17 	ldw	r2,-4(fp)
   20580:	10800404 	addi	r2,r2,16
   20584:	10800037 	ldwio	r2,0(r2)
   20588:	e0bffe15 	stw	r2,-8(fp)
   2058c:	e0bffe17 	ldw	r2,-8(fp)
   20590:	1080008c 	andi	r2,r2,2
   20594:	10000126 	beq	r2,zero,2059c <ACK_single_check+0x44>
   20598:	e03ffd15 	stw	zero,-12(fp)
   2059c:	e0bffd17 	ldw	r2,-12(fp)
   205a0:	10000a26 	beq	r2,zero,205cc <ACK_single_check+0x74>
   205a4:	01003e84 	movi	r4,250
   205a8:	00311100 	call	31110 <usleep>
   205ac:	e0bfff17 	ldw	r2,-4(fp)
   205b0:	10800404 	addi	r2,r2,16
   205b4:	10800037 	ldwio	r2,0(r2)
   205b8:	e0bffe15 	stw	r2,-8(fp)
   205bc:	e0bffe17 	ldw	r2,-8(fp)
   205c0:	1080200c 	andi	r2,r2,128
   205c4:	10000126 	beq	r2,zero,205cc <ACK_single_check+0x74>
   205c8:	e03ffd15 	stw	zero,-12(fp)
   205cc:	e0bffd17 	ldw	r2,-12(fp)
   205d0:	e037883a 	mov	sp,fp
   205d4:	dfc00117 	ldw	ra,4(sp)
   205d8:	df000017 	ldw	fp,0(sp)
   205dc:	dec00204 	addi	sp,sp,8
   205e0:	f800283a 	ret

000205e4 <ACK_check>:
   205e4:	defffb04 	addi	sp,sp,-20
   205e8:	dfc00415 	stw	ra,16(sp)
   205ec:	df000315 	stw	fp,12(sp)
   205f0:	df000304 	addi	fp,sp,12
   205f4:	e13fff15 	stw	r4,-4(fp)
   205f8:	e03ffd15 	stw	zero,-12(fp)
   205fc:	e03ffe15 	stw	zero,-8(fp)
   20600:	00000306 	br	20610 <ACK_check+0x2c>
   20604:	e13fff17 	ldw	r4,-4(fp)
   20608:	00205580 	call	20558 <ACK_single_check>
   2060c:	e0bffd15 	stw	r2,-12(fp)
   20610:	e0bffd17 	ldw	r2,-12(fp)
   20614:	1000051e 	bne	r2,zero,2062c <ACK_check+0x48>
   20618:	e0bffe17 	ldw	r2,-8(fp)
   2061c:	10c00044 	addi	r3,r2,1
   20620:	e0fffe15 	stw	r3,-8(fp)
   20624:	10800290 	cmplti	r2,r2,10
   20628:	103ff61e 	bne	r2,zero,20604 <__alt_data_end+0xfffe0604>
   2062c:	e0bffd17 	ldw	r2,-12(fp)
   20630:	e037883a 	mov	sp,fp
   20634:	dfc00117 	ldw	ra,4(sp)
   20638:	df000017 	ldw	fp,0(sp)
   2063c:	dec00204 	addi	sp,sp,8
   20640:	f800283a 	ret

00020644 <OC_I2C_Write>:
   20644:	defff904 	addi	sp,sp,-28
   20648:	dfc00615 	stw	ra,24(sp)
   2064c:	df000515 	stw	fp,20(sp)
   20650:	df000504 	addi	fp,sp,20
   20654:	e13ffc15 	stw	r4,-16(fp)
   20658:	2807883a 	mov	r3,r5
   2065c:	3005883a 	mov	r2,r6
   20660:	e1ffff15 	stw	r7,-4(fp)
   20664:	e0fffd05 	stb	r3,-12(fp)
   20668:	e0bffe05 	stb	r2,-8(fp)
   2066c:	e0bffd03 	ldbu	r2,-12(fp)
   20670:	100d883a 	mov	r6,r2
   20674:	014000c4 	movi	r5,3
   20678:	e13ffc17 	ldw	r4,-16(fp)
   2067c:	00202900 	call	20290 <Write32_Data>
   20680:	1000051e 	bne	r2,zero,20698 <OC_I2C_Write+0x54>
   20684:	010000f4 	movhi	r4,3
   20688:	210e1704 	addi	r4,r4,14428
   2068c:	0025e280 	call	25e28 <puts>
   20690:	0005883a 	mov	r2,zero
   20694:	00006606 	br	20830 <OC_I2C_Write+0x1ec>
   20698:	01802404 	movi	r6,144
   2069c:	01400104 	movi	r5,4
   206a0:	e13ffc17 	ldw	r4,-16(fp)
   206a4:	00202900 	call	20290 <Write32_Data>
   206a8:	1000051e 	bne	r2,zero,206c0 <OC_I2C_Write+0x7c>
   206ac:	010000f4 	movhi	r4,3
   206b0:	210e1d04 	addi	r4,r4,14452
   206b4:	0025e280 	call	25e28 <puts>
   206b8:	0005883a 	mov	r2,zero
   206bc:	00005c06 	br	20830 <OC_I2C_Write+0x1ec>
   206c0:	e13ffc17 	ldw	r4,-16(fp)
   206c4:	00205e40 	call	205e4 <ACK_check>
   206c8:	1000051e 	bne	r2,zero,206e0 <OC_I2C_Write+0x9c>
   206cc:	010000f4 	movhi	r4,3
   206d0:	210e2304 	addi	r4,r4,14476
   206d4:	0025e280 	call	25e28 <puts>
   206d8:	0005883a 	mov	r2,zero
   206dc:	00005406 	br	20830 <OC_I2C_Write+0x1ec>
   206e0:	e0bffe03 	ldbu	r2,-8(fp)
   206e4:	100d883a 	mov	r6,r2
   206e8:	014000c4 	movi	r5,3
   206ec:	e13ffc17 	ldw	r4,-16(fp)
   206f0:	00202900 	call	20290 <Write32_Data>
   206f4:	1000051e 	bne	r2,zero,2070c <OC_I2C_Write+0xc8>
   206f8:	010000f4 	movhi	r4,3
   206fc:	210e2904 	addi	r4,r4,14500
   20700:	0025e280 	call	25e28 <puts>
   20704:	0005883a 	mov	r2,zero
   20708:	00004906 	br	20830 <OC_I2C_Write+0x1ec>
   2070c:	01800404 	movi	r6,16
   20710:	01400104 	movi	r5,4
   20714:	e13ffc17 	ldw	r4,-16(fp)
   20718:	00202900 	call	20290 <Write32_Data>
   2071c:	1000051e 	bne	r2,zero,20734 <OC_I2C_Write+0xf0>
   20720:	010000f4 	movhi	r4,3
   20724:	210e2f04 	addi	r4,r4,14524
   20728:	0025e280 	call	25e28 <puts>
   2072c:	0005883a 	mov	r2,zero
   20730:	00003f06 	br	20830 <OC_I2C_Write+0x1ec>
   20734:	e13ffc17 	ldw	r4,-16(fp)
   20738:	00205e40 	call	205e4 <ACK_check>
   2073c:	1000051e 	bne	r2,zero,20754 <OC_I2C_Write+0x110>
   20740:	010000f4 	movhi	r4,3
   20744:	210e3504 	addi	r4,r4,14548
   20748:	0025e280 	call	25e28 <puts>
   2074c:	0005883a 	mov	r2,zero
   20750:	00003706 	br	20830 <OC_I2C_Write+0x1ec>
   20754:	e0800217 	ldw	r2,8(fp)
   20758:	10bfffc4 	addi	r2,r2,-1
   2075c:	e0bffb15 	stw	r2,-20(fp)
   20760:	00002406 	br	207f4 <OC_I2C_Write+0x1b0>
   20764:	e0bffb17 	ldw	r2,-20(fp)
   20768:	e0ffff17 	ldw	r3,-4(fp)
   2076c:	1885883a 	add	r2,r3,r2
   20770:	10800003 	ldbu	r2,0(r2)
   20774:	10803fcc 	andi	r2,r2,255
   20778:	100d883a 	mov	r6,r2
   2077c:	014000c4 	movi	r5,3
   20780:	e13ffc17 	ldw	r4,-16(fp)
   20784:	00202900 	call	20290 <Write32_Data>
   20788:	1000051e 	bne	r2,zero,207a0 <OC_I2C_Write+0x15c>
   2078c:	010000f4 	movhi	r4,3
   20790:	210e3b04 	addi	r4,r4,14572
   20794:	0025e280 	call	25e28 <puts>
   20798:	0005883a 	mov	r2,zero
   2079c:	00002406 	br	20830 <OC_I2C_Write+0x1ec>
   207a0:	01800404 	movi	r6,16
   207a4:	01400104 	movi	r5,4
   207a8:	e13ffc17 	ldw	r4,-16(fp)
   207ac:	00202900 	call	20290 <Write32_Data>
   207b0:	1000051e 	bne	r2,zero,207c8 <OC_I2C_Write+0x184>
   207b4:	010000f4 	movhi	r4,3
   207b8:	210e4104 	addi	r4,r4,14596
   207bc:	0025e280 	call	25e28 <puts>
   207c0:	0005883a 	mov	r2,zero
   207c4:	00001a06 	br	20830 <OC_I2C_Write+0x1ec>
   207c8:	e13ffc17 	ldw	r4,-16(fp)
   207cc:	00205e40 	call	205e4 <ACK_check>
   207d0:	1000051e 	bne	r2,zero,207e8 <OC_I2C_Write+0x1a4>
   207d4:	010000f4 	movhi	r4,3
   207d8:	210e4704 	addi	r4,r4,14620
   207dc:	0025e280 	call	25e28 <puts>
   207e0:	0005883a 	mov	r2,zero
   207e4:	00001206 	br	20830 <OC_I2C_Write+0x1ec>
   207e8:	e0bffb17 	ldw	r2,-20(fp)
   207ec:	10bfffc4 	addi	r2,r2,-1
   207f0:	e0bffb15 	stw	r2,-20(fp)
   207f4:	e0bffb17 	ldw	r2,-20(fp)
   207f8:	103fda0e 	bge	r2,zero,20764 <__alt_data_end+0xfffe0764>
   207fc:	01801004 	movi	r6,64
   20800:	01400104 	movi	r5,4
   20804:	e13ffc17 	ldw	r4,-16(fp)
   20808:	00202900 	call	20290 <Write32_Data>
   2080c:	1000051e 	bne	r2,zero,20824 <OC_I2C_Write+0x1e0>
   20810:	010000f4 	movhi	r4,3
   20814:	210e4d04 	addi	r4,r4,14644
   20818:	0025e280 	call	25e28 <puts>
   2081c:	0005883a 	mov	r2,zero
   20820:	00000306 	br	20830 <OC_I2C_Write+0x1ec>
   20824:	01003e84 	movi	r4,250
   20828:	00311100 	call	31110 <usleep>
   2082c:	00800044 	movi	r2,1
   20830:	e037883a 	mov	sp,fp
   20834:	dfc00117 	ldw	ra,4(sp)
   20838:	df000017 	ldw	fp,0(sp)
   2083c:	dec00204 	addi	sp,sp,8
   20840:	f800283a 	ret

00020844 <ACK_judge_for_read>:
   20844:	defffb04 	addi	sp,sp,-20
   20848:	dfc00415 	stw	ra,16(sp)
   2084c:	df000315 	stw	fp,12(sp)
   20850:	df000304 	addi	fp,sp,12
   20854:	e13fff15 	stw	r4,-4(fp)
   20858:	01003e84 	movi	r4,250
   2085c:	00311100 	call	31110 <usleep>
   20860:	e0bffe04 	addi	r2,fp,-8
   20864:	100d883a 	mov	r6,r2
   20868:	01400104 	movi	r5,4
   2086c:	e13fff17 	ldw	r4,-4(fp)
   20870:	00202e80 	call	202e8 <Read32_Data>
   20874:	e0bffd15 	stw	r2,-12(fp)
   20878:	e0bffd17 	ldw	r2,-12(fp)
   2087c:	10000426 	beq	r2,zero,20890 <ACK_judge_for_read+0x4c>
   20880:	e0bffe17 	ldw	r2,-8(fp)
   20884:	1080008c 	andi	r2,r2,2
   20888:	10000126 	beq	r2,zero,20890 <ACK_judge_for_read+0x4c>
   2088c:	e03ffd15 	stw	zero,-12(fp)
   20890:	e0bffd17 	ldw	r2,-12(fp)
   20894:	e037883a 	mov	sp,fp
   20898:	dfc00117 	ldw	ra,4(sp)
   2089c:	df000017 	ldw	fp,0(sp)
   208a0:	dec00204 	addi	sp,sp,8
   208a4:	f800283a 	ret

000208a8 <OC_I2C_Read>:
   208a8:	defff804 	addi	sp,sp,-32
   208ac:	dfc00715 	stw	ra,28(sp)
   208b0:	df000615 	stw	fp,24(sp)
   208b4:	df000604 	addi	fp,sp,24
   208b8:	e13ffc15 	stw	r4,-16(fp)
   208bc:	2807883a 	mov	r3,r5
   208c0:	3005883a 	mov	r2,r6
   208c4:	e1ffff15 	stw	r7,-4(fp)
   208c8:	e0fffd05 	stb	r3,-12(fp)
   208cc:	e0bffe05 	stb	r2,-8(fp)
   208d0:	e0bffc17 	ldw	r2,-16(fp)
   208d4:	10800304 	addi	r2,r2,12
   208d8:	1007883a 	mov	r3,r2
   208dc:	e0bffd03 	ldbu	r2,-12(fp)
   208e0:	18800035 	stwio	r2,0(r3)
   208e4:	e0bffc17 	ldw	r2,-16(fp)
   208e8:	10800404 	addi	r2,r2,16
   208ec:	1007883a 	mov	r3,r2
   208f0:	00802404 	movi	r2,144
   208f4:	18800035 	stwio	r2,0(r3)
   208f8:	e13ffc17 	ldw	r4,-16(fp)
   208fc:	00205e40 	call	205e4 <ACK_check>
   20900:	1000051e 	bne	r2,zero,20918 <OC_I2C_Read+0x70>
   20904:	010000f4 	movhi	r4,3
   20908:	210e5304 	addi	r4,r4,14668
   2090c:	0025e280 	call	25e28 <puts>
   20910:	0005883a 	mov	r2,zero
   20914:	00005206 	br	20a60 <OC_I2C_Read+0x1b8>
   20918:	e0bffc17 	ldw	r2,-16(fp)
   2091c:	10800304 	addi	r2,r2,12
   20920:	1007883a 	mov	r3,r2
   20924:	e0bffe03 	ldbu	r2,-8(fp)
   20928:	18800035 	stwio	r2,0(r3)
   2092c:	e0bffc17 	ldw	r2,-16(fp)
   20930:	10800404 	addi	r2,r2,16
   20934:	1007883a 	mov	r3,r2
   20938:	00800404 	movi	r2,16
   2093c:	18800035 	stwio	r2,0(r3)
   20940:	e13ffc17 	ldw	r4,-16(fp)
   20944:	00205e40 	call	205e4 <ACK_check>
   20948:	1000051e 	bne	r2,zero,20960 <OC_I2C_Read+0xb8>
   2094c:	010000f4 	movhi	r4,3
   20950:	210e5904 	addi	r4,r4,14692
   20954:	0025e280 	call	25e28 <puts>
   20958:	0005883a 	mov	r2,zero
   2095c:	00004006 	br	20a60 <OC_I2C_Read+0x1b8>
   20960:	e0bffc17 	ldw	r2,-16(fp)
   20964:	10800304 	addi	r2,r2,12
   20968:	1007883a 	mov	r3,r2
   2096c:	e0bffd03 	ldbu	r2,-12(fp)
   20970:	10800054 	ori	r2,r2,1
   20974:	10803fcc 	andi	r2,r2,255
   20978:	18800035 	stwio	r2,0(r3)
   2097c:	e0bffc17 	ldw	r2,-16(fp)
   20980:	10800404 	addi	r2,r2,16
   20984:	1007883a 	mov	r3,r2
   20988:	00802404 	movi	r2,144
   2098c:	18800035 	stwio	r2,0(r3)
   20990:	e13ffc17 	ldw	r4,-16(fp)
   20994:	00205e40 	call	205e4 <ACK_check>
   20998:	1000051e 	bne	r2,zero,209b0 <OC_I2C_Read+0x108>
   2099c:	010000f4 	movhi	r4,3
   209a0:	210e5f04 	addi	r4,r4,14716
   209a4:	0025e280 	call	25e28 <puts>
   209a8:	0005883a 	mov	r2,zero
   209ac:	00002c06 	br	20a60 <OC_I2C_Read+0x1b8>
   209b0:	e03ffa15 	stw	zero,-24(fp)
   209b4:	00001f06 	br	20a34 <OC_I2C_Read+0x18c>
   209b8:	e0bffc17 	ldw	r2,-16(fp)
   209bc:	10800404 	addi	r2,r2,16
   209c0:	1009883a 	mov	r4,r2
   209c4:	e0bffa17 	ldw	r2,-24(fp)
   209c8:	10c00044 	addi	r3,r2,1
   209cc:	e0800217 	ldw	r2,8(fp)
   209d0:	1880021e 	bne	r3,r2,209dc <OC_I2C_Read+0x134>
   209d4:	00800a04 	movi	r2,40
   209d8:	00000106 	br	209e0 <OC_I2C_Read+0x138>
   209dc:	00800804 	movi	r2,32
   209e0:	20800035 	stwio	r2,0(r4)
   209e4:	e13ffc17 	ldw	r4,-16(fp)
   209e8:	00208440 	call	20844 <ACK_judge_for_read>
   209ec:	1000051e 	bne	r2,zero,20a04 <OC_I2C_Read+0x15c>
   209f0:	010000f4 	movhi	r4,3
   209f4:	210e6504 	addi	r4,r4,14740
   209f8:	0025e280 	call	25e28 <puts>
   209fc:	0005883a 	mov	r2,zero
   20a00:	00001706 	br	20a60 <OC_I2C_Read+0x1b8>
   20a04:	e0bffc17 	ldw	r2,-16(fp)
   20a08:	10800304 	addi	r2,r2,12
   20a0c:	10800037 	ldwio	r2,0(r2)
   20a10:	e0bffb15 	stw	r2,-20(fp)
   20a14:	e0bffa17 	ldw	r2,-24(fp)
   20a18:	e0ffff17 	ldw	r3,-4(fp)
   20a1c:	1885883a 	add	r2,r3,r2
   20a20:	e0fffb17 	ldw	r3,-20(fp)
   20a24:	10c00005 	stb	r3,0(r2)
   20a28:	e0bffa17 	ldw	r2,-24(fp)
   20a2c:	10800044 	addi	r2,r2,1
   20a30:	e0bffa15 	stw	r2,-24(fp)
   20a34:	e0fffa17 	ldw	r3,-24(fp)
   20a38:	e0800217 	ldw	r2,8(fp)
   20a3c:	18bfde16 	blt	r3,r2,209b8 <__alt_data_end+0xfffe09b8>
   20a40:	e0bffc17 	ldw	r2,-16(fp)
   20a44:	10800404 	addi	r2,r2,16
   20a48:	1007883a 	mov	r3,r2
   20a4c:	00801004 	movi	r2,64
   20a50:	18800035 	stwio	r2,0(r3)
   20a54:	01003e84 	movi	r4,250
   20a58:	00311100 	call	31110 <usleep>
   20a5c:	00800044 	movi	r2,1
   20a60:	e037883a 	mov	sp,fp
   20a64:	dfc00117 	ldw	ra,4(sp)
   20a68:	df000017 	ldw	fp,0(sp)
   20a6c:	dec00204 	addi	sp,sp,8
   20a70:	f800283a 	ret

00020a74 <OC_I2C_Read_Continue>:
   20a74:	defff804 	addi	sp,sp,-32
   20a78:	dfc00715 	stw	ra,28(sp)
   20a7c:	df000615 	stw	fp,24(sp)
   20a80:	df000604 	addi	fp,sp,24
   20a84:	e13ffc15 	stw	r4,-16(fp)
   20a88:	2805883a 	mov	r2,r5
   20a8c:	e1bffe15 	stw	r6,-8(fp)
   20a90:	e1ffff15 	stw	r7,-4(fp)
   20a94:	e0bffd05 	stb	r2,-12(fp)
   20a98:	e0bffc17 	ldw	r2,-16(fp)
   20a9c:	10800304 	addi	r2,r2,12
   20aa0:	1007883a 	mov	r3,r2
   20aa4:	e0bffd03 	ldbu	r2,-12(fp)
   20aa8:	10800054 	ori	r2,r2,1
   20aac:	10803fcc 	andi	r2,r2,255
   20ab0:	18800035 	stwio	r2,0(r3)
   20ab4:	e0bffc17 	ldw	r2,-16(fp)
   20ab8:	10800404 	addi	r2,r2,16
   20abc:	1007883a 	mov	r3,r2
   20ac0:	00802404 	movi	r2,144
   20ac4:	18800035 	stwio	r2,0(r3)
   20ac8:	e13ffc17 	ldw	r4,-16(fp)
   20acc:	00205e40 	call	205e4 <ACK_check>
   20ad0:	1000051e 	bne	r2,zero,20ae8 <OC_I2C_Read_Continue+0x74>
   20ad4:	010000f4 	movhi	r4,3
   20ad8:	210e5f04 	addi	r4,r4,14716
   20adc:	0025e280 	call	25e28 <puts>
   20ae0:	0005883a 	mov	r2,zero
   20ae4:	00002c06 	br	20b98 <OC_I2C_Read_Continue+0x124>
   20ae8:	e03ffa15 	stw	zero,-24(fp)
   20aec:	00001f06 	br	20b6c <OC_I2C_Read_Continue+0xf8>
   20af0:	e0bffc17 	ldw	r2,-16(fp)
   20af4:	10800404 	addi	r2,r2,16
   20af8:	1009883a 	mov	r4,r2
   20afc:	e0bffa17 	ldw	r2,-24(fp)
   20b00:	10c00044 	addi	r3,r2,1
   20b04:	e0bfff17 	ldw	r2,-4(fp)
   20b08:	1880021e 	bne	r3,r2,20b14 <OC_I2C_Read_Continue+0xa0>
   20b0c:	00800a04 	movi	r2,40
   20b10:	00000106 	br	20b18 <OC_I2C_Read_Continue+0xa4>
   20b14:	00800804 	movi	r2,32
   20b18:	20800035 	stwio	r2,0(r4)
   20b1c:	e13ffc17 	ldw	r4,-16(fp)
   20b20:	00208440 	call	20844 <ACK_judge_for_read>
   20b24:	1000051e 	bne	r2,zero,20b3c <OC_I2C_Read_Continue+0xc8>
   20b28:	010000f4 	movhi	r4,3
   20b2c:	210e6504 	addi	r4,r4,14740
   20b30:	0025e280 	call	25e28 <puts>
   20b34:	0005883a 	mov	r2,zero
   20b38:	00001706 	br	20b98 <OC_I2C_Read_Continue+0x124>
   20b3c:	e0bffc17 	ldw	r2,-16(fp)
   20b40:	10800304 	addi	r2,r2,12
   20b44:	10800037 	ldwio	r2,0(r2)
   20b48:	e0bffb15 	stw	r2,-20(fp)
   20b4c:	e0bffa17 	ldw	r2,-24(fp)
   20b50:	e0fffe17 	ldw	r3,-8(fp)
   20b54:	1885883a 	add	r2,r3,r2
   20b58:	e0fffb17 	ldw	r3,-20(fp)
   20b5c:	10c00005 	stb	r3,0(r2)
   20b60:	e0bffa17 	ldw	r2,-24(fp)
   20b64:	10800044 	addi	r2,r2,1
   20b68:	e0bffa15 	stw	r2,-24(fp)
   20b6c:	e0fffa17 	ldw	r3,-24(fp)
   20b70:	e0bfff17 	ldw	r2,-4(fp)
   20b74:	18bfde16 	blt	r3,r2,20af0 <__alt_data_end+0xfffe0af0>
   20b78:	e0bffc17 	ldw	r2,-16(fp)
   20b7c:	10800404 	addi	r2,r2,16
   20b80:	1007883a 	mov	r3,r2
   20b84:	00801004 	movi	r2,64
   20b88:	18800035 	stwio	r2,0(r3)
   20b8c:	01003e84 	movi	r4,250
   20b90:	00311100 	call	31110 <usleep>
   20b94:	00800044 	movi	r2,1
   20b98:	e037883a 	mov	sp,fp
   20b9c:	dfc00117 	ldw	ra,4(sp)
   20ba0:	df000017 	ldw	fp,0(sp)
   20ba4:	dec00204 	addi	sp,sp,8
   20ba8:	f800283a 	ret

00020bac <OC_I2CL_Write>:
   20bac:	defff804 	addi	sp,sp,-32
   20bb0:	dfc00715 	stw	ra,28(sp)
   20bb4:	df000615 	stw	fp,24(sp)
   20bb8:	df000604 	addi	fp,sp,24
   20bbc:	e13ffc15 	stw	r4,-16(fp)
   20bc0:	2807883a 	mov	r3,r5
   20bc4:	3005883a 	mov	r2,r6
   20bc8:	e1ffff15 	stw	r7,-4(fp)
   20bcc:	e0fffd05 	stb	r3,-12(fp)
   20bd0:	e0bffe0d 	sth	r2,-8(fp)
   20bd4:	e0bffe0b 	ldhu	r2,-8(fp)
   20bd8:	1004d23a 	srli	r2,r2,8
   20bdc:	e0bffb05 	stb	r2,-20(fp)
   20be0:	e0bffe0b 	ldhu	r2,-8(fp)
   20be4:	e0bffb45 	stb	r2,-19(fp)
   20be8:	e0bffd03 	ldbu	r2,-12(fp)
   20bec:	100d883a 	mov	r6,r2
   20bf0:	014000c4 	movi	r5,3
   20bf4:	e13ffc17 	ldw	r4,-16(fp)
   20bf8:	00202900 	call	20290 <Write32_Data>
   20bfc:	1000021e 	bne	r2,zero,20c08 <OC_I2CL_Write+0x5c>
   20c00:	0005883a 	mov	r2,zero
   20c04:	00006806 	br	20da8 <OC_I2CL_Write+0x1fc>
   20c08:	01802404 	movi	r6,144
   20c0c:	01400104 	movi	r5,4
   20c10:	e13ffc17 	ldw	r4,-16(fp)
   20c14:	00202900 	call	20290 <Write32_Data>
   20c18:	1000021e 	bne	r2,zero,20c24 <OC_I2CL_Write+0x78>
   20c1c:	0005883a 	mov	r2,zero
   20c20:	00006106 	br	20da8 <OC_I2CL_Write+0x1fc>
   20c24:	e13ffc17 	ldw	r4,-16(fp)
   20c28:	00205e40 	call	205e4 <ACK_check>
   20c2c:	1000051e 	bne	r2,zero,20c44 <OC_I2CL_Write+0x98>
   20c30:	010000f4 	movhi	r4,3
   20c34:	210e6b04 	addi	r4,r4,14764
   20c38:	0025e280 	call	25e28 <puts>
   20c3c:	0005883a 	mov	r2,zero
   20c40:	00005906 	br	20da8 <OC_I2CL_Write+0x1fc>
   20c44:	e0bffb03 	ldbu	r2,-20(fp)
   20c48:	100d883a 	mov	r6,r2
   20c4c:	014000c4 	movi	r5,3
   20c50:	e13ffc17 	ldw	r4,-16(fp)
   20c54:	00202900 	call	20290 <Write32_Data>
   20c58:	1000021e 	bne	r2,zero,20c64 <OC_I2CL_Write+0xb8>
   20c5c:	0005883a 	mov	r2,zero
   20c60:	00005106 	br	20da8 <OC_I2CL_Write+0x1fc>
   20c64:	01800404 	movi	r6,16
   20c68:	01400104 	movi	r5,4
   20c6c:	e13ffc17 	ldw	r4,-16(fp)
   20c70:	00202900 	call	20290 <Write32_Data>
   20c74:	1000021e 	bne	r2,zero,20c80 <OC_I2CL_Write+0xd4>
   20c78:	0005883a 	mov	r2,zero
   20c7c:	00004a06 	br	20da8 <OC_I2CL_Write+0x1fc>
   20c80:	e13ffc17 	ldw	r4,-16(fp)
   20c84:	00205e40 	call	205e4 <ACK_check>
   20c88:	1000051e 	bne	r2,zero,20ca0 <OC_I2CL_Write+0xf4>
   20c8c:	010000f4 	movhi	r4,3
   20c90:	210e7104 	addi	r4,r4,14788
   20c94:	0025e280 	call	25e28 <puts>
   20c98:	0005883a 	mov	r2,zero
   20c9c:	00004206 	br	20da8 <OC_I2CL_Write+0x1fc>
   20ca0:	e0bffb43 	ldbu	r2,-19(fp)
   20ca4:	100d883a 	mov	r6,r2
   20ca8:	014000c4 	movi	r5,3
   20cac:	e13ffc17 	ldw	r4,-16(fp)
   20cb0:	00202900 	call	20290 <Write32_Data>
   20cb4:	1000021e 	bne	r2,zero,20cc0 <OC_I2CL_Write+0x114>
   20cb8:	0005883a 	mov	r2,zero
   20cbc:	00003a06 	br	20da8 <OC_I2CL_Write+0x1fc>
   20cc0:	01800404 	movi	r6,16
   20cc4:	01400104 	movi	r5,4
   20cc8:	e13ffc17 	ldw	r4,-16(fp)
   20ccc:	00202900 	call	20290 <Write32_Data>
   20cd0:	e13ffc17 	ldw	r4,-16(fp)
   20cd4:	00205e40 	call	205e4 <ACK_check>
   20cd8:	1000051e 	bne	r2,zero,20cf0 <OC_I2CL_Write+0x144>
   20cdc:	010000f4 	movhi	r4,3
   20ce0:	210e7704 	addi	r4,r4,14812
   20ce4:	0025e280 	call	25e28 <puts>
   20ce8:	0005883a 	mov	r2,zero
   20cec:	00002e06 	br	20da8 <OC_I2CL_Write+0x1fc>
   20cf0:	e0800217 	ldw	r2,8(fp)
   20cf4:	10bfffc4 	addi	r2,r2,-1
   20cf8:	e0bffa15 	stw	r2,-24(fp)
   20cfc:	00001e06 	br	20d78 <OC_I2CL_Write+0x1cc>
   20d00:	e0bffa17 	ldw	r2,-24(fp)
   20d04:	e0ffff17 	ldw	r3,-4(fp)
   20d08:	1885883a 	add	r2,r3,r2
   20d0c:	10800003 	ldbu	r2,0(r2)
   20d10:	10803fcc 	andi	r2,r2,255
   20d14:	100d883a 	mov	r6,r2
   20d18:	014000c4 	movi	r5,3
   20d1c:	e13ffc17 	ldw	r4,-16(fp)
   20d20:	00202900 	call	20290 <Write32_Data>
   20d24:	1000021e 	bne	r2,zero,20d30 <OC_I2CL_Write+0x184>
   20d28:	0005883a 	mov	r2,zero
   20d2c:	00001e06 	br	20da8 <OC_I2CL_Write+0x1fc>
   20d30:	01800404 	movi	r6,16
   20d34:	01400104 	movi	r5,4
   20d38:	e13ffc17 	ldw	r4,-16(fp)
   20d3c:	00202900 	call	20290 <Write32_Data>
   20d40:	1000021e 	bne	r2,zero,20d4c <OC_I2CL_Write+0x1a0>
   20d44:	0005883a 	mov	r2,zero
   20d48:	00001706 	br	20da8 <OC_I2CL_Write+0x1fc>
   20d4c:	e13ffc17 	ldw	r4,-16(fp)
   20d50:	00205e40 	call	205e4 <ACK_check>
   20d54:	1000051e 	bne	r2,zero,20d6c <OC_I2CL_Write+0x1c0>
   20d58:	010000f4 	movhi	r4,3
   20d5c:	210e7d04 	addi	r4,r4,14836
   20d60:	0025e280 	call	25e28 <puts>
   20d64:	0005883a 	mov	r2,zero
   20d68:	00000f06 	br	20da8 <OC_I2CL_Write+0x1fc>
   20d6c:	e0bffa17 	ldw	r2,-24(fp)
   20d70:	10bfffc4 	addi	r2,r2,-1
   20d74:	e0bffa15 	stw	r2,-24(fp)
   20d78:	e0bffa17 	ldw	r2,-24(fp)
   20d7c:	103fe00e 	bge	r2,zero,20d00 <__alt_data_end+0xfffe0d00>
   20d80:	01801004 	movi	r6,64
   20d84:	01400104 	movi	r5,4
   20d88:	e13ffc17 	ldw	r4,-16(fp)
   20d8c:	00202900 	call	20290 <Write32_Data>
   20d90:	1000021e 	bne	r2,zero,20d9c <OC_I2CL_Write+0x1f0>
   20d94:	0005883a 	mov	r2,zero
   20d98:	00000306 	br	20da8 <OC_I2CL_Write+0x1fc>
   20d9c:	01003e84 	movi	r4,250
   20da0:	00311100 	call	31110 <usleep>
   20da4:	00800044 	movi	r2,1
   20da8:	e037883a 	mov	sp,fp
   20dac:	dfc00117 	ldw	ra,4(sp)
   20db0:	df000017 	ldw	fp,0(sp)
   20db4:	dec00204 	addi	sp,sp,8
   20db8:	f800283a 	ret

00020dbc <OC_I2CL_Read>:
   20dbc:	defff704 	addi	sp,sp,-36
   20dc0:	dfc00815 	stw	ra,32(sp)
   20dc4:	df000715 	stw	fp,28(sp)
   20dc8:	df000704 	addi	fp,sp,28
   20dcc:	e13ffc15 	stw	r4,-16(fp)
   20dd0:	2807883a 	mov	r3,r5
   20dd4:	3005883a 	mov	r2,r6
   20dd8:	e1ffff15 	stw	r7,-4(fp)
   20ddc:	e0fffd05 	stb	r3,-12(fp)
   20de0:	e0bffe0d 	sth	r2,-8(fp)
   20de4:	e0bffe0b 	ldhu	r2,-8(fp)
   20de8:	1004d23a 	srli	r2,r2,8
   20dec:	e0bffa05 	stb	r2,-24(fp)
   20df0:	e0bffe0b 	ldhu	r2,-8(fp)
   20df4:	e0bffa45 	stb	r2,-23(fp)
   20df8:	e0bffd03 	ldbu	r2,-12(fp)
   20dfc:	100d883a 	mov	r6,r2
   20e00:	014000c4 	movi	r5,3
   20e04:	e13ffc17 	ldw	r4,-16(fp)
   20e08:	00202900 	call	20290 <Write32_Data>
   20e0c:	1000021e 	bne	r2,zero,20e18 <OC_I2CL_Read+0x5c>
   20e10:	0005883a 	mov	r2,zero
   20e14:	00008406 	br	21028 <OC_I2CL_Read+0x26c>
   20e18:	01802404 	movi	r6,144
   20e1c:	01400104 	movi	r5,4
   20e20:	e13ffc17 	ldw	r4,-16(fp)
   20e24:	00202900 	call	20290 <Write32_Data>
   20e28:	1000021e 	bne	r2,zero,20e34 <OC_I2CL_Read+0x78>
   20e2c:	0005883a 	mov	r2,zero
   20e30:	00007d06 	br	21028 <OC_I2CL_Read+0x26c>
   20e34:	e13ffc17 	ldw	r4,-16(fp)
   20e38:	00205e40 	call	205e4 <ACK_check>
   20e3c:	1000051e 	bne	r2,zero,20e54 <OC_I2CL_Read+0x98>
   20e40:	010000f4 	movhi	r4,3
   20e44:	210e8304 	addi	r4,r4,14860
   20e48:	0025e280 	call	25e28 <puts>
   20e4c:	0005883a 	mov	r2,zero
   20e50:	00007506 	br	21028 <OC_I2CL_Read+0x26c>
   20e54:	e0bffa03 	ldbu	r2,-24(fp)
   20e58:	100d883a 	mov	r6,r2
   20e5c:	014000c4 	movi	r5,3
   20e60:	e13ffc17 	ldw	r4,-16(fp)
   20e64:	00202900 	call	20290 <Write32_Data>
   20e68:	1000021e 	bne	r2,zero,20e74 <OC_I2CL_Read+0xb8>
   20e6c:	0005883a 	mov	r2,zero
   20e70:	00006d06 	br	21028 <OC_I2CL_Read+0x26c>
   20e74:	01800404 	movi	r6,16
   20e78:	01400104 	movi	r5,4
   20e7c:	e13ffc17 	ldw	r4,-16(fp)
   20e80:	00202900 	call	20290 <Write32_Data>
   20e84:	1000021e 	bne	r2,zero,20e90 <OC_I2CL_Read+0xd4>
   20e88:	0005883a 	mov	r2,zero
   20e8c:	00006606 	br	21028 <OC_I2CL_Read+0x26c>
   20e90:	e13ffc17 	ldw	r4,-16(fp)
   20e94:	00205e40 	call	205e4 <ACK_check>
   20e98:	1000051e 	bne	r2,zero,20eb0 <OC_I2CL_Read+0xf4>
   20e9c:	010000f4 	movhi	r4,3
   20ea0:	210e8904 	addi	r4,r4,14884
   20ea4:	0025e280 	call	25e28 <puts>
   20ea8:	0005883a 	mov	r2,zero
   20eac:	00005e06 	br	21028 <OC_I2CL_Read+0x26c>
   20eb0:	e0bffa43 	ldbu	r2,-23(fp)
   20eb4:	100d883a 	mov	r6,r2
   20eb8:	014000c4 	movi	r5,3
   20ebc:	e13ffc17 	ldw	r4,-16(fp)
   20ec0:	00202900 	call	20290 <Write32_Data>
   20ec4:	1000021e 	bne	r2,zero,20ed0 <OC_I2CL_Read+0x114>
   20ec8:	0005883a 	mov	r2,zero
   20ecc:	00005606 	br	21028 <OC_I2CL_Read+0x26c>
   20ed0:	01800404 	movi	r6,16
   20ed4:	01400104 	movi	r5,4
   20ed8:	e13ffc17 	ldw	r4,-16(fp)
   20edc:	00202900 	call	20290 <Write32_Data>
   20ee0:	1000021e 	bne	r2,zero,20eec <OC_I2CL_Read+0x130>
   20ee4:	0005883a 	mov	r2,zero
   20ee8:	00004f06 	br	21028 <OC_I2CL_Read+0x26c>
   20eec:	e13ffc17 	ldw	r4,-16(fp)
   20ef0:	00205e40 	call	205e4 <ACK_check>
   20ef4:	1000051e 	bne	r2,zero,20f0c <OC_I2CL_Read+0x150>
   20ef8:	010000f4 	movhi	r4,3
   20efc:	210e8f04 	addi	r4,r4,14908
   20f00:	0025e280 	call	25e28 <puts>
   20f04:	0005883a 	mov	r2,zero
   20f08:	00004706 	br	21028 <OC_I2CL_Read+0x26c>
   20f0c:	e0bffd03 	ldbu	r2,-12(fp)
   20f10:	10800054 	ori	r2,r2,1
   20f14:	10803fcc 	andi	r2,r2,255
   20f18:	100d883a 	mov	r6,r2
   20f1c:	014000c4 	movi	r5,3
   20f20:	e13ffc17 	ldw	r4,-16(fp)
   20f24:	00202900 	call	20290 <Write32_Data>
   20f28:	1000021e 	bne	r2,zero,20f34 <OC_I2CL_Read+0x178>
   20f2c:	0005883a 	mov	r2,zero
   20f30:	00003d06 	br	21028 <OC_I2CL_Read+0x26c>
   20f34:	01802404 	movi	r6,144
   20f38:	01400104 	movi	r5,4
   20f3c:	e13ffc17 	ldw	r4,-16(fp)
   20f40:	00202900 	call	20290 <Write32_Data>
   20f44:	1000021e 	bne	r2,zero,20f50 <OC_I2CL_Read+0x194>
   20f48:	0005883a 	mov	r2,zero
   20f4c:	00003606 	br	21028 <OC_I2CL_Read+0x26c>
   20f50:	e13ffc17 	ldw	r4,-16(fp)
   20f54:	00205e40 	call	205e4 <ACK_check>
   20f58:	1000051e 	bne	r2,zero,20f70 <OC_I2CL_Read+0x1b4>
   20f5c:	010000f4 	movhi	r4,3
   20f60:	210e9504 	addi	r4,r4,14932
   20f64:	0025e280 	call	25e28 <puts>
   20f68:	0005883a 	mov	r2,zero
   20f6c:	00002e06 	br	21028 <OC_I2CL_Read+0x26c>
   20f70:	e03ff915 	stw	zero,-28(fp)
   20f74:	00001f06 	br	20ff4 <OC_I2CL_Read+0x238>
   20f78:	e0bffc17 	ldw	r2,-16(fp)
   20f7c:	10800404 	addi	r2,r2,16
   20f80:	1009883a 	mov	r4,r2
   20f84:	e0bff917 	ldw	r2,-28(fp)
   20f88:	10c00044 	addi	r3,r2,1
   20f8c:	e0800217 	ldw	r2,8(fp)
   20f90:	1880021e 	bne	r3,r2,20f9c <OC_I2CL_Read+0x1e0>
   20f94:	00800a04 	movi	r2,40
   20f98:	00000106 	br	20fa0 <OC_I2CL_Read+0x1e4>
   20f9c:	00800804 	movi	r2,32
   20fa0:	20800035 	stwio	r2,0(r4)
   20fa4:	e13ffc17 	ldw	r4,-16(fp)
   20fa8:	00208440 	call	20844 <ACK_judge_for_read>
   20fac:	1000051e 	bne	r2,zero,20fc4 <OC_I2CL_Read+0x208>
   20fb0:	010000f4 	movhi	r4,3
   20fb4:	210e9b04 	addi	r4,r4,14956
   20fb8:	0025e280 	call	25e28 <puts>
   20fbc:	0005883a 	mov	r2,zero
   20fc0:	00001906 	br	21028 <OC_I2CL_Read+0x26c>
   20fc4:	e0bffc17 	ldw	r2,-16(fp)
   20fc8:	10800304 	addi	r2,r2,12
   20fcc:	10800037 	ldwio	r2,0(r2)
   20fd0:	e0bffb15 	stw	r2,-20(fp)
   20fd4:	e0bff917 	ldw	r2,-28(fp)
   20fd8:	e0ffff17 	ldw	r3,-4(fp)
   20fdc:	1885883a 	add	r2,r3,r2
   20fe0:	e0fffb17 	ldw	r3,-20(fp)
   20fe4:	10c00005 	stb	r3,0(r2)
   20fe8:	e0bff917 	ldw	r2,-28(fp)
   20fec:	10800044 	addi	r2,r2,1
   20ff0:	e0bff915 	stw	r2,-28(fp)
   20ff4:	e0fff917 	ldw	r3,-28(fp)
   20ff8:	e0800217 	ldw	r2,8(fp)
   20ffc:	18bfde16 	blt	r3,r2,20f78 <__alt_data_end+0xfffe0f78>
   21000:	01801004 	movi	r6,64
   21004:	01400104 	movi	r5,4
   21008:	e13ffc17 	ldw	r4,-16(fp)
   2100c:	00202900 	call	20290 <Write32_Data>
   21010:	1000021e 	bne	r2,zero,2101c <OC_I2CL_Read+0x260>
   21014:	0005883a 	mov	r2,zero
   21018:	00000306 	br	21028 <OC_I2CL_Read+0x26c>
   2101c:	01003e84 	movi	r4,250
   21020:	00311100 	call	31110 <usleep>
   21024:	00800044 	movi	r2,1
   21028:	e037883a 	mov	sp,fp
   2102c:	dfc00117 	ldw	ra,4(sp)
   21030:	df000017 	ldw	fp,0(sp)
   21034:	dec00204 	addi	sp,sp,8
   21038:	f800283a 	ret

0002103c <Focus_Init>:
   2103c:	defffe04 	addi	sp,sp,-8
   21040:	dfc00115 	stw	ra,4(sp)
   21044:	df000015 	stw	fp,0(sp)
   21048:	d839883a 	mov	fp,sp
   2104c:	0007883a 	mov	r3,zero
   21050:	00800134 	movhi	r2,4
   21054:	10840904 	addi	r2,r2,4132
   21058:	10c00035 	stwio	r3,0(r2)
   2105c:	d0a0010b 	ldhu	r2,-32764(gp)
   21060:	10ffffcc 	andi	r3,r2,65535
   21064:	00800134 	movhi	r2,4
   21068:	10840a04 	addi	r2,r2,4136
   2106c:	10c00035 	stwio	r3,0(r2)
   21070:	d0a0018b 	ldhu	r2,-32762(gp)
   21074:	10ffffcc 	andi	r3,r2,65535
   21078:	00800134 	movhi	r2,4
   2107c:	10840b04 	addi	r2,r2,4140
   21080:	10c00035 	stwio	r3,0(r2)
   21084:	d0a0000b 	ldhu	r2,-32768(gp)
   21088:	10bfffcc 	andi	r2,r2,65535
   2108c:	1004d07a 	srli	r2,r2,1
   21090:	10ffffcc 	andi	r3,r2,65535
   21094:	d0a0010b 	ldhu	r2,-32764(gp)
   21098:	10bfffcc 	andi	r2,r2,65535
   2109c:	1004d07a 	srli	r2,r2,1
   210a0:	10bfffcc 	andi	r2,r2,65535
   210a4:	1887c83a 	sub	r3,r3,r2
   210a8:	00800134 	movhi	r2,4
   210ac:	10840c04 	addi	r2,r2,4144
   210b0:	10c00035 	stwio	r3,0(r2)
   210b4:	d0a0008b 	ldhu	r2,-32766(gp)
   210b8:	10bfffcc 	andi	r2,r2,65535
   210bc:	1004d07a 	srli	r2,r2,1
   210c0:	10ffffcc 	andi	r3,r2,65535
   210c4:	d0a0018b 	ldhu	r2,-32762(gp)
   210c8:	10bfffcc 	andi	r2,r2,65535
   210cc:	1004d07a 	srli	r2,r2,1
   210d0:	10bfffcc 	andi	r2,r2,65535
   210d4:	1887c83a 	sub	r3,r3,r2
   210d8:	00800134 	movhi	r2,4
   210dc:	10840d04 	addi	r2,r2,4148
   210e0:	10c00035 	stwio	r3,0(r2)
   210e4:	d0a00203 	ldbu	r2,-32760(gp)
   210e8:	10803fcc 	andi	r2,r2,255
   210ec:	1006923a 	slli	r3,r2,8
   210f0:	d0a00243 	ldbu	r2,-32759(gp)
   210f4:	10803fcc 	andi	r2,r2,255
   210f8:	1887883a 	add	r3,r3,r2
   210fc:	00800134 	movhi	r2,4
   21100:	10840e04 	addi	r2,r2,4152
   21104:	10c00035 	stwio	r3,0(r2)
   21108:	d0a00283 	ldbu	r2,-32758(gp)
   2110c:	10c03fcc 	andi	r3,r2,255
   21110:	00800134 	movhi	r2,4
   21114:	10840f04 	addi	r2,r2,4156
   21118:	10c00035 	stwio	r3,0(r2)
   2111c:	01001904 	movi	r4,100
   21120:	00311100 	call	31110 <usleep>
   21124:	00c00044 	movi	r3,1
   21128:	00800134 	movhi	r2,4
   2112c:	10840804 	addi	r2,r2,4128
   21130:	10c00035 	stwio	r3,0(r2)
   21134:	01000084 	movi	r4,2
   21138:	00311100 	call	31110 <usleep>
   2113c:	0007883a 	mov	r3,zero
   21140:	00800134 	movhi	r2,4
   21144:	10840804 	addi	r2,r2,4128
   21148:	10c00035 	stwio	r3,0(r2)
   2114c:	0001883a 	nop
   21150:	e037883a 	mov	sp,fp
   21154:	dfc00117 	ldw	ra,4(sp)
   21158:	df000017 	ldw	fp,0(sp)
   2115c:	dec00204 	addi	sp,sp,8
   21160:	f800283a 	ret

00021164 <Focus_Window>:
   21164:	defffa04 	addi	sp,sp,-24
   21168:	dfc00515 	stw	ra,20(sp)
   2116c:	df000415 	stw	fp,16(sp)
   21170:	df000404 	addi	fp,sp,16
   21174:	e13ffe15 	stw	r4,-8(fp)
   21178:	e17fff15 	stw	r5,-4(fp)
   2117c:	00213440 	call	21344 <Focus_Released>
   21180:	10006a26 	beq	r2,zero,2132c <Focus_Window+0x1c8>
   21184:	00c00044 	movi	r3,1
   21188:	00800134 	movhi	r2,4
   2118c:	10840904 	addi	r2,r2,4132
   21190:	10c00035 	stwio	r3,0(r2)
   21194:	d0a0010b 	ldhu	r2,-32764(gp)
   21198:	10bfffcc 	andi	r2,r2,65535
   2119c:	1004d07a 	srli	r2,r2,1
   211a0:	10bfffcc 	andi	r2,r2,65535
   211a4:	e0fffe17 	ldw	r3,-8(fp)
   211a8:	1885c83a 	sub	r2,r3,r2
   211ac:	1000020e 	bge	r2,zero,211b8 <Focus_Window+0x54>
   211b0:	e03ffc0d 	sth	zero,-16(fp)
   211b4:	00001606 	br	21210 <Focus_Window+0xac>
   211b8:	d0a0010b 	ldhu	r2,-32764(gp)
   211bc:	10bfffcc 	andi	r2,r2,65535
   211c0:	1004d07a 	srli	r2,r2,1
   211c4:	10ffffcc 	andi	r3,r2,65535
   211c8:	e0bffe17 	ldw	r2,-8(fp)
   211cc:	1885883a 	add	r2,r3,r2
   211d0:	d0e0000b 	ldhu	r3,-32768(gp)
   211d4:	18ffffcc 	andi	r3,r3,65535
   211d8:	1880060e 	bge	r3,r2,211f4 <Focus_Window+0x90>
   211dc:	d0e0000b 	ldhu	r3,-32768(gp)
   211e0:	d0a0010b 	ldhu	r2,-32764(gp)
   211e4:	1885c83a 	sub	r2,r3,r2
   211e8:	10bfffc4 	addi	r2,r2,-1
   211ec:	e0bffc0d 	sth	r2,-16(fp)
   211f0:	00000706 	br	21210 <Focus_Window+0xac>
   211f4:	e0bffe17 	ldw	r2,-8(fp)
   211f8:	1007883a 	mov	r3,r2
   211fc:	d0a0010b 	ldhu	r2,-32764(gp)
   21200:	10bfffcc 	andi	r2,r2,65535
   21204:	1004d07a 	srli	r2,r2,1
   21208:	1885c83a 	sub	r2,r3,r2
   2120c:	e0bffc0d 	sth	r2,-16(fp)
   21210:	d0a0018b 	ldhu	r2,-32762(gp)
   21214:	10bfffcc 	andi	r2,r2,65535
   21218:	1004d07a 	srli	r2,r2,1
   2121c:	10bfffcc 	andi	r2,r2,65535
   21220:	e0ffff17 	ldw	r3,-4(fp)
   21224:	1885c83a 	sub	r2,r3,r2
   21228:	1000020e 	bge	r2,zero,21234 <Focus_Window+0xd0>
   2122c:	e03ffc8d 	sth	zero,-14(fp)
   21230:	00001606 	br	2128c <Focus_Window+0x128>
   21234:	d0a0018b 	ldhu	r2,-32762(gp)
   21238:	10bfffcc 	andi	r2,r2,65535
   2123c:	1004d07a 	srli	r2,r2,1
   21240:	10ffffcc 	andi	r3,r2,65535
   21244:	e0bfff17 	ldw	r2,-4(fp)
   21248:	1885883a 	add	r2,r3,r2
   2124c:	d0e0008b 	ldhu	r3,-32766(gp)
   21250:	18ffffcc 	andi	r3,r3,65535
   21254:	1880060e 	bge	r3,r2,21270 <Focus_Window+0x10c>
   21258:	d0e0008b 	ldhu	r3,-32766(gp)
   2125c:	d0a0018b 	ldhu	r2,-32762(gp)
   21260:	1885c83a 	sub	r2,r3,r2
   21264:	10bfffc4 	addi	r2,r2,-1
   21268:	e0bffc8d 	sth	r2,-14(fp)
   2126c:	00000706 	br	2128c <Focus_Window+0x128>
   21270:	e0bfff17 	ldw	r2,-4(fp)
   21274:	1007883a 	mov	r3,r2
   21278:	d0a0018b 	ldhu	r2,-32762(gp)
   2127c:	10bfffcc 	andi	r2,r2,65535
   21280:	1004d07a 	srli	r2,r2,1
   21284:	1885c83a 	sub	r2,r3,r2
   21288:	e0bffc8d 	sth	r2,-14(fp)
   2128c:	e0bffc0b 	ldhu	r2,-16(fp)
   21290:	e0fffc8b 	ldhu	r3,-14(fp)
   21294:	180d883a 	mov	r6,r3
   21298:	100b883a 	mov	r5,r2
   2129c:	010000f4 	movhi	r4,3
   212a0:	210ea104 	addi	r4,r4,14980
   212a4:	0025d0c0 	call	25d0c <printf>
   212a8:	e0fffc0b 	ldhu	r3,-16(fp)
   212ac:	00800134 	movhi	r2,4
   212b0:	10840c04 	addi	r2,r2,4144
   212b4:	10c00035 	stwio	r3,0(r2)
   212b8:	e0fffc8b 	ldhu	r3,-14(fp)
   212bc:	00800134 	movhi	r2,4
   212c0:	10840d04 	addi	r2,r2,4148
   212c4:	10c00035 	stwio	r3,0(r2)
   212c8:	01000284 	movi	r4,10
   212cc:	00311100 	call	31110 <usleep>
   212d0:	00c00044 	movi	r3,1
   212d4:	00800134 	movhi	r2,4
   212d8:	10840804 	addi	r2,r2,4128
   212dc:	10c00035 	stwio	r3,0(r2)
   212e0:	01000084 	movi	r4,2
   212e4:	00311100 	call	31110 <usleep>
   212e8:	0007883a 	mov	r3,zero
   212ec:	00800134 	movhi	r2,4
   212f0:	10840804 	addi	r2,r2,4128
   212f4:	10c00035 	stwio	r3,0(r2)
   212f8:	00213440 	call	21344 <Focus_Released>
   212fc:	00800134 	movhi	r2,4
   21300:	10840804 	addi	r2,r2,4128
   21304:	10800037 	ldwio	r2,0(r2)
   21308:	1083ffcc 	andi	r2,r2,4095
   2130c:	e0bffd0d 	sth	r2,-12(fp)
   21310:	e0bffd0b 	ldhu	r2,-12(fp)
   21314:	100b883a 	mov	r5,r2
   21318:	010000f4 	movhi	r4,3
   2131c:	210ea804 	addi	r4,r4,15008
   21320:	0025d0c0 	call	25d0c <printf>
   21324:	e0bffd0b 	ldhu	r2,-12(fp)
   21328:	00000106 	br	21330 <Focus_Window+0x1cc>
   2132c:	e0bffd0b 	ldhu	r2,-12(fp)
   21330:	e037883a 	mov	sp,fp
   21334:	dfc00117 	ldw	ra,4(sp)
   21338:	df000017 	ldw	fp,0(sp)
   2133c:	dec00204 	addi	sp,sp,8
   21340:	f800283a 	ret

00021344 <Focus_Released>:
   21344:	defffc04 	addi	sp,sp,-16
   21348:	dfc00315 	stw	ra,12(sp)
   2134c:	df000215 	stw	fp,8(sp)
   21350:	df000204 	addi	fp,sp,8
   21354:	e03ffe15 	stw	zero,-8(fp)
   21358:	00800134 	movhi	r2,4
   2135c:	10a23904 	addi	r2,r2,-30492
   21360:	10c00017 	ldw	r3,0(r2)
   21364:	00800134 	movhi	r2,4
   21368:	10a23804 	addi	r2,r2,-30496
   2136c:	10800017 	ldw	r2,0(r2)
   21370:	100490fa 	slli	r2,r2,3
   21374:	1885883a 	add	r2,r3,r2
   21378:	e0bfff15 	stw	r2,-4(fp)
   2137c:	0001883a 	nop
   21380:	00800134 	movhi	r2,4
   21384:	10840804 	addi	r2,r2,4128
   21388:	10800037 	ldwio	r2,0(r2)
   2138c:	10a0000c 	andi	r2,r2,32768
   21390:	1000051e 	bne	r2,zero,213a8 <Focus_Released+0x64>
   21394:	00800134 	movhi	r2,4
   21398:	10a23904 	addi	r2,r2,-30492
   2139c:	10c00017 	ldw	r3,0(r2)
   213a0:	e0bfff17 	ldw	r2,-4(fp)
   213a4:	18bff636 	bltu	r3,r2,21380 <__alt_data_end+0xfffe1380>
   213a8:	00800134 	movhi	r2,4
   213ac:	10a23904 	addi	r2,r2,-30492
   213b0:	10c00017 	ldw	r3,0(r2)
   213b4:	e0bfff17 	ldw	r2,-4(fp)
   213b8:	1880032e 	bgeu	r3,r2,213c8 <Focus_Released+0x84>
   213bc:	00800044 	movi	r2,1
   213c0:	e0bffe15 	stw	r2,-8(fp)
   213c4:	00000306 	br	213d4 <Focus_Released+0x90>
   213c8:	010000f4 	movhi	r4,3
   213cc:	210ead04 	addi	r4,r4,15028
   213d0:	0025e280 	call	25e28 <puts>
   213d4:	0109c404 	movi	r4,10000
   213d8:	00311100 	call	31110 <usleep>
   213dc:	e0bffe17 	ldw	r2,-8(fp)
   213e0:	e037883a 	mov	sp,fp
   213e4:	dfc00117 	ldw	ra,4(sp)
   213e8:	df000017 	ldw	fp,0(sp)
   213ec:	dec00204 	addi	sp,sp,8
   213f0:	f800283a 	ret

000213f4 <mipi_clear_error>:
#define MIPI_REG_FrmErrCnt		0x0080
#define MIPI_REG_MDLErrCnt		0x0090

alt_u8 txdata = 5;
alt_u8 rxdata = 0;
void mipi_clear_error(void) {
   213f4:	defffe04 	addi	sp,sp,-8
   213f8:	dfc00115 	stw	ra,4(sp)
   213fc:	df000015 	stw	fp,0(sp)
   21400:	d839883a 	mov	fp,sp
	MipiBridgeRegWrite(MIPI_REG_CSIStatus, 0x01FF); // clear error
   21404:	01407fc4 	movi	r5,511
   21408:	01001904 	movi	r4,100
   2140c:	00221340 	call	22134 <MipiBridgeRegWrite>
	MipiBridgeRegWrite(MIPI_REG_MDLSynErr, 0x0000); // clear error
   21410:	000b883a 	mov	r5,zero
   21414:	01001a04 	movi	r4,104
   21418:	00221340 	call	22134 <MipiBridgeRegWrite>
	MipiBridgeRegWrite(MIPI_REG_FrmErrCnt, 0x0000); // clear error
   2141c:	000b883a 	mov	r5,zero
   21420:	01002004 	movi	r4,128
   21424:	00221340 	call	22134 <MipiBridgeRegWrite>
	MipiBridgeRegWrite(MIPI_REG_MDLErrCnt, 0x0000); // clear error
   21428:	000b883a 	mov	r5,zero
   2142c:	01002404 	movi	r4,144
   21430:	00221340 	call	22134 <MipiBridgeRegWrite>

	MipiBridgeRegWrite(0x0082, 0x00);
   21434:	000b883a 	mov	r5,zero
   21438:	01002084 	movi	r4,130
   2143c:	00221340 	call	22134 <MipiBridgeRegWrite>
	MipiBridgeRegWrite(0x0084, 0x00);
   21440:	000b883a 	mov	r5,zero
   21444:	01002104 	movi	r4,132
   21448:	00221340 	call	22134 <MipiBridgeRegWrite>
	MipiBridgeRegWrite(0x0086, 0x00);
   2144c:	000b883a 	mov	r5,zero
   21450:	01002184 	movi	r4,134
   21454:	00221340 	call	22134 <MipiBridgeRegWrite>
	MipiBridgeRegWrite(0x0088, 0x00);
   21458:	000b883a 	mov	r5,zero
   2145c:	01002204 	movi	r4,136
   21460:	00221340 	call	22134 <MipiBridgeRegWrite>
	MipiBridgeRegWrite(0x008A, 0x00);
   21464:	000b883a 	mov	r5,zero
   21468:	01002284 	movi	r4,138
   2146c:	00221340 	call	22134 <MipiBridgeRegWrite>
	MipiBridgeRegWrite(0x008C, 0x00);
   21470:	000b883a 	mov	r5,zero
   21474:	01002304 	movi	r4,140
   21478:	00221340 	call	22134 <MipiBridgeRegWrite>
	MipiBridgeRegWrite(0x008E, 0x00);
   2147c:	000b883a 	mov	r5,zero
   21480:	01002384 	movi	r4,142
   21484:	00221340 	call	22134 <MipiBridgeRegWrite>
	MipiBridgeRegWrite(0x0090, 0x00);
   21488:	000b883a 	mov	r5,zero
   2148c:	01002404 	movi	r4,144
   21490:	00221340 	call	22134 <MipiBridgeRegWrite>
}
   21494:	0001883a 	nop
   21498:	e037883a 	mov	sp,fp
   2149c:	dfc00117 	ldw	ra,4(sp)
   214a0:	df000017 	ldw	fp,0(sp)
   214a4:	dec00204 	addi	sp,sp,8
   214a8:	f800283a 	ret

000214ac <mipi_show_error_info>:

void mipi_show_error_info(void) {
   214ac:	defff904 	addi	sp,sp,-28
   214b0:	dfc00615 	stw	ra,24(sp)
   214b4:	df000515 	stw	fp,20(sp)
   214b8:	df000504 	addi	fp,sp,20

	alt_u16 PHY_status, SCI_status, MDLSynErr, FrmErrCnt, MDLErrCnt;

	PHY_status = MipiBridgeRegRead(MIPI_REG_PHYSta);
   214bc:	01001884 	movi	r4,98
   214c0:	00221a00 	call	221a0 <MipiBridgeRegRead>
   214c4:	e0bffd0d 	sth	r2,-12(fp)
	SCI_status = MipiBridgeRegRead(MIPI_REG_CSIStatus);
   214c8:	01001904 	movi	r4,100
   214cc:	00221a00 	call	221a0 <MipiBridgeRegRead>
   214d0:	e0bffd8d 	sth	r2,-10(fp)
	MDLSynErr = MipiBridgeRegRead(MIPI_REG_MDLSynErr);
   214d4:	01001a04 	movi	r4,104
   214d8:	00221a00 	call	221a0 <MipiBridgeRegRead>
   214dc:	e0bffe0d 	sth	r2,-8(fp)
	FrmErrCnt = MipiBridgeRegRead(MIPI_REG_FrmErrCnt);
   214e0:	01002004 	movi	r4,128
   214e4:	00221a00 	call	221a0 <MipiBridgeRegRead>
   214e8:	e0bffe8d 	sth	r2,-6(fp)
	MDLErrCnt = MipiBridgeRegRead(MIPI_REG_MDLErrCnt);
   214ec:	01002404 	movi	r4,144
   214f0:	00221a00 	call	221a0 <MipiBridgeRegRead>
   214f4:	e0bfff0d 	sth	r2,-4(fp)
	printf(
   214f8:	e13ffd0b 	ldhu	r4,-12(fp)
   214fc:	e17ffd8b 	ldhu	r5,-10(fp)
   21500:	e1bffe0b 	ldhu	r6,-8(fp)
   21504:	e0bffe8b 	ldhu	r2,-6(fp)
   21508:	e0ffff0b 	ldhu	r3,-4(fp)
   2150c:	d8c00115 	stw	r3,4(sp)
   21510:	d8800015 	stw	r2,0(sp)
   21514:	300f883a 	mov	r7,r6
   21518:	280d883a 	mov	r6,r5
   2151c:	200b883a 	mov	r5,r4
   21520:	010000f4 	movhi	r4,3
   21524:	210eb504 	addi	r4,r4,15060
   21528:	0025d0c0 	call	25d0c <printf>
			"PHY_status=%xh, CSI_status=%xh, MDLSynErr=%xh, FrmErrCnt=%xh, MDLErrCnt=%xh\r\n",
			PHY_status, SCI_status, MDLSynErr, FrmErrCnt, MDLErrCnt);
}
   2152c:	0001883a 	nop
   21530:	e037883a 	mov	sp,fp
   21534:	dfc00117 	ldw	ra,4(sp)
   21538:	df000017 	ldw	fp,0(sp)
   2153c:	dec00204 	addi	sp,sp,8
   21540:	f800283a 	ret

00021544 <mipi_show_error_info_more>:

void mipi_show_error_info_more(void) {
   21544:	defffe04 	addi	sp,sp,-8
   21548:	dfc00115 	stw	ra,4(sp)
   2154c:	df000015 	stw	fp,0(sp)
   21550:	d839883a 	mov	fp,sp
	printf("FrmErrCnt = %d\n", MipiBridgeRegRead(0x0080));
   21554:	01002004 	movi	r4,128
   21558:	00221a00 	call	221a0 <MipiBridgeRegRead>
   2155c:	10bfffcc 	andi	r2,r2,65535
   21560:	100b883a 	mov	r5,r2
   21564:	010000f4 	movhi	r4,3
   21568:	210ec904 	addi	r4,r4,15140
   2156c:	0025d0c0 	call	25d0c <printf>
	printf("CRCErrCnt = %d\n", MipiBridgeRegRead(0x0082));
   21570:	01002084 	movi	r4,130
   21574:	00221a00 	call	221a0 <MipiBridgeRegRead>
   21578:	10bfffcc 	andi	r2,r2,65535
   2157c:	100b883a 	mov	r5,r2
   21580:	010000f4 	movhi	r4,3
   21584:	210ecd04 	addi	r4,r4,15156
   21588:	0025d0c0 	call	25d0c <printf>
	printf("CorErrCnt = %d\n", MipiBridgeRegRead(0x0084));
   2158c:	01002104 	movi	r4,132
   21590:	00221a00 	call	221a0 <MipiBridgeRegRead>
   21594:	10bfffcc 	andi	r2,r2,65535
   21598:	100b883a 	mov	r5,r2
   2159c:	010000f4 	movhi	r4,3
   215a0:	210ed104 	addi	r4,r4,15172
   215a4:	0025d0c0 	call	25d0c <printf>
	printf("HdrErrCnt = %d\n", MipiBridgeRegRead(0x0086));
   215a8:	01002184 	movi	r4,134
   215ac:	00221a00 	call	221a0 <MipiBridgeRegRead>
   215b0:	10bfffcc 	andi	r2,r2,65535
   215b4:	100b883a 	mov	r5,r2
   215b8:	010000f4 	movhi	r4,3
   215bc:	210ed504 	addi	r4,r4,15188
   215c0:	0025d0c0 	call	25d0c <printf>
	printf("EIDErrCnt = %d\n", MipiBridgeRegRead(0x0088));
   215c4:	01002204 	movi	r4,136
   215c8:	00221a00 	call	221a0 <MipiBridgeRegRead>
   215cc:	10bfffcc 	andi	r2,r2,65535
   215d0:	100b883a 	mov	r5,r2
   215d4:	010000f4 	movhi	r4,3
   215d8:	210ed904 	addi	r4,r4,15204
   215dc:	0025d0c0 	call	25d0c <printf>
	printf("CtlErrCnt = %d\n", MipiBridgeRegRead(0x008A));
   215e0:	01002284 	movi	r4,138
   215e4:	00221a00 	call	221a0 <MipiBridgeRegRead>
   215e8:	10bfffcc 	andi	r2,r2,65535
   215ec:	100b883a 	mov	r5,r2
   215f0:	010000f4 	movhi	r4,3
   215f4:	210edd04 	addi	r4,r4,15220
   215f8:	0025d0c0 	call	25d0c <printf>
	printf("SoTErrCnt = %d\n", MipiBridgeRegRead(0x008C));
   215fc:	01002304 	movi	r4,140
   21600:	00221a00 	call	221a0 <MipiBridgeRegRead>
   21604:	10bfffcc 	andi	r2,r2,65535
   21608:	100b883a 	mov	r5,r2
   2160c:	010000f4 	movhi	r4,3
   21610:	210ee104 	addi	r4,r4,15236
   21614:	0025d0c0 	call	25d0c <printf>
	printf("SynErrCnt = %d\n", MipiBridgeRegRead(0x008E));
   21618:	01002384 	movi	r4,142
   2161c:	00221a00 	call	221a0 <MipiBridgeRegRead>
   21620:	10bfffcc 	andi	r2,r2,65535
   21624:	100b883a 	mov	r5,r2
   21628:	010000f4 	movhi	r4,3
   2162c:	210ee504 	addi	r4,r4,15252
   21630:	0025d0c0 	call	25d0c <printf>
	printf("MDLErrCnt = %d\n", MipiBridgeRegRead(0x0090));
   21634:	01002404 	movi	r4,144
   21638:	00221a00 	call	221a0 <MipiBridgeRegRead>
   2163c:	10bfffcc 	andi	r2,r2,65535
   21640:	100b883a 	mov	r5,r2
   21644:	010000f4 	movhi	r4,3
   21648:	210ee904 	addi	r4,r4,15268
   2164c:	0025d0c0 	call	25d0c <printf>
	printf("FIFOSTATUS = %d\n", MipiBridgeRegRead(0x00F8));
   21650:	01003e04 	movi	r4,248
   21654:	00221a00 	call	221a0 <MipiBridgeRegRead>
   21658:	10bfffcc 	andi	r2,r2,65535
   2165c:	100b883a 	mov	r5,r2
   21660:	010000f4 	movhi	r4,3
   21664:	210eed04 	addi	r4,r4,15284
   21668:	0025d0c0 	call	25d0c <printf>
	printf("DataType = 0x%04x\n", MipiBridgeRegRead(0x006A));
   2166c:	01001a84 	movi	r4,106
   21670:	00221a00 	call	221a0 <MipiBridgeRegRead>
   21674:	10bfffcc 	andi	r2,r2,65535
   21678:	100b883a 	mov	r5,r2
   2167c:	010000f4 	movhi	r4,3
   21680:	210ef204 	addi	r4,r4,15304
   21684:	0025d0c0 	call	25d0c <printf>
	printf("CSIPktLen = %d\n", MipiBridgeRegRead(0x006E));
   21688:	01001b84 	movi	r4,110
   2168c:	00221a00 	call	221a0 <MipiBridgeRegRead>
   21690:	10bfffcc 	andi	r2,r2,65535
   21694:	100b883a 	mov	r5,r2
   21698:	010000f4 	movhi	r4,3
   2169c:	210ef704 	addi	r4,r4,15324
   216a0:	0025d0c0 	call	25d0c <printf>
}
   216a4:	0001883a 	nop
   216a8:	e037883a 	mov	sp,fp
   216ac:	dfc00117 	ldw	ra,4(sp)
   216b0:	df000017 	ldw	fp,0(sp)
   216b4:	dec00204 	addi	sp,sp,8
   216b8:	f800283a 	ret

000216bc <MIPI_Init>:

bool MIPI_Init(void) {
   216bc:	defffd04 	addi	sp,sp,-12
   216c0:	dfc00215 	stw	ra,8(sp)
   216c4:	df000115 	stw	fp,4(sp)
   216c8:	df000104 	addi	fp,sp,4
	bool bSuccess;

	bSuccess = oc_i2c_init_ex(I2C_OPENCORES_MIPI_BASE, 50 * 1000 * 1000,
   216cc:	018001b4 	movhi	r6,6
   216d0:	3186a004 	addi	r6,r6,6784
   216d4:	0140bef4 	movhi	r5,763
   216d8:	297c2004 	addi	r5,r5,-3968
   216dc:	01000134 	movhi	r4,4
   216e0:	21041804 	addi	r4,r4,4192
   216e4:	00203980 	call	20398 <oc_i2c_init_ex>
   216e8:	e0bfff15 	stw	r2,-4(fp)
			400 * 1000); //I2C: 400K
	if (!bSuccess)
   216ec:	e0bfff17 	ldw	r2,-4(fp)
   216f0:	1000031e 	bne	r2,zero,21700 <MIPI_Init+0x44>
		printf("failed to init MIPI- Bridge i2c\r\n");
   216f4:	010000f4 	movhi	r4,3
   216f8:	210efb04 	addi	r4,r4,15340
   216fc:	0025e280 	call	25e28 <puts>

	usleep(50 * 1000);
   21700:	0130d414 	movui	r4,50000
   21704:	00311100 	call	31110 <usleep>
	MipiBridgeInit();
   21708:	00222180 	call	22218 <MipiBridgeInit>

	usleep(500 * 1000);
   2170c:	01000234 	movhi	r4,8
   21710:	21284804 	addi	r4,r4,-24288
   21714:	00311100 	call	31110 <usleep>

//	bSuccess = oc_i2c_init_ex(I2C_OPENCORES_CAMERA_BASE, 50*1000*1000,400*1000); //I2C: 400K
//	if (!bSuccess)
//		printf("failed to init MIPI- Camera i2c\r\n");

	MipiCameraInit();
   21718:	00229940 	call	22994 <MipiCameraInit>
	MIPI_BIN_LEVEL(DEFAULT_LEVEL);
   2171c:	010000c4 	movi	r4,3
   21720:	00227d40 	call	227d4 <MIPI_BIN_LEVEL>
//    OV8865_FOCUS_Move_to(340);

//    oc_i2c_uninit(I2C_OPENCORES_CAMERA_BASE);  // Release I2C bus , due to two I2C master shared!

	usleep(1000);
   21724:	0100fa04 	movi	r4,1000
   21728:	00311100 	call	31110 <usleep>

//    oc_i2c_uninit(I2C_OPENCORES_MIPI_BASE);

	return bSuccess;
   2172c:	e0bfff17 	ldw	r2,-4(fp)
}
   21730:	e037883a 	mov	sp,fp
   21734:	dfc00117 	ldw	ra,4(sp)
   21738:	df000017 	ldw	fp,0(sp)
   2173c:	dec00204 	addi	sp,sp,8
   21740:	f800283a 	ret

00021744 <IRQ_UART_Interrupts>:

//UART
void IRQ_UART_Interrupts() {
   21744:	defffe04 	addi	sp,sp,-8
   21748:	dfc00115 	stw	ra,4(sp)
   2174c:	df000015 	stw	fp,0(sp)
   21750:	d839883a 	mov	fp,sp
	rxdata = IORD_ALTERA_AVALON_UART_RXDATA(UART_0_BASE); //rxdatarxdata
   21754:	00800134 	movhi	r2,4
   21758:	10880804 	addi	r2,r2,8224
   2175c:	10800037 	ldwio	r2,0(r2)
   21760:	d0a8f005 	stb	r2,-23616(gp)
	static int bin_level = 3;
	if (rxdata == 'b') {
   21764:	d0a8f003 	ldbu	r2,-23616(gp)
   21768:	10803fcc 	andi	r2,r2,255
   2176c:	10801898 	cmpnei	r2,r2,98
   21770:	1000091e 	bne	r2,zero,21798 <IRQ_UART_Interrupts+0x54>
		if (bin_level == 3)
   21774:	d0a00417 	ldw	r2,-32752(gp)
   21778:	108000d8 	cmpnei	r2,r2,3
   2177c:	1000031e 	bne	r2,zero,2178c <IRQ_UART_Interrupts+0x48>
			bin_level = 1;
   21780:	00800044 	movi	r2,1
   21784:	d0a00415 	stw	r2,-32752(gp)
   21788:	00000306 	br	21798 <IRQ_UART_Interrupts+0x54>
		else
			bin_level++;
   2178c:	d0a00417 	ldw	r2,-32752(gp)
   21790:	10800044 	addi	r2,r2,1
   21794:	d0a00415 	stw	r2,-32752(gp)
	}
	MIPI_BIN_LEVEL(bin_level);
   21798:	d0a00417 	ldw	r2,-32752(gp)
   2179c:	10803fcc 	andi	r2,r2,255
   217a0:	1009883a 	mov	r4,r2
   217a4:	00227d40 	call	227d4 <MIPI_BIN_LEVEL>
//	while (!(IORD_ALTERA_AVALON_UART_STATUS(UART_0_BASE)
//			& ALTERA_AVALON_UART_STATUS_TRDY_MSK))
//		;
//	//
//	IOWR_ALTERA_AVALON_UART_TXDATA(UART_0_BASE, txdata); //txdata
}
   217a8:	0001883a 	nop
   217ac:	e037883a 	mov	sp,fp
   217b0:	dfc00117 	ldw	ra,4(sp)
   217b4:	df000017 	ldw	fp,0(sp)
   217b8:	dec00204 	addi	sp,sp,8
   217bc:	f800283a 	ret

000217c0 <IRQ_init>:

//
void IRQ_init() {
   217c0:	deffff04 	addi	sp,sp,-4
   217c4:	df000015 	stw	fp,0(sp)
   217c8:	d839883a 	mov	fp,sp
	//
	IOWR_ALTERA_AVALON_UART_STATUS(UART_0_BASE, 0);
   217cc:	0007883a 	mov	r3,zero
   217d0:	00800134 	movhi	r2,4
   217d4:	10880a04 	addi	r2,r2,8232
   217d8:	10c00035 	stwio	r3,0(r2)
	//1
	IORD_ALTERA_AVALON_UART_CONTROL(UART_0_BASE);
   217dc:	00800134 	movhi	r2,4
   217e0:	10880b04 	addi	r2,r2,8236
   217e4:	10800037 	ldwio	r2,0(r2)

// alt_ic_isr_register(
//		 UART_0_IRQ_INTERRUPT_CONTROLLER_ID,//ISR
//		 UART_0_IRQ,//system.h
//   IRQ_UART_Interrupts,//UART);//flags
}
   217e8:	0001883a 	nop
   217ec:	e037883a 	mov	sp,fp
   217f0:	df000017 	ldw	fp,0(sp)
   217f4:	dec00104 	addi	sp,sp,4
   217f8:	f800283a 	ret

000217fc <UART_send_u8>:

void UART_send_u8(int message) {
   217fc:	defffe04 	addi	sp,sp,-8
   21800:	df000115 	stw	fp,4(sp)
   21804:	df000104 	addi	fp,sp,4
   21808:	e13fff15 	stw	r4,-4(fp)
	while (!(IORD_ALTERA_AVALON_UART_STATUS(UART_0_BASE)
   2180c:	0001883a 	nop
   21810:	00800134 	movhi	r2,4
   21814:	10880a04 	addi	r2,r2,8232
   21818:	10800037 	ldwio	r2,0(r2)
			& ALTERA_AVALON_UART_STATUS_TRDY_MSK))
   2181c:	1080100c 	andi	r2,r2,64
//		 UART_0_IRQ,//system.h
//   IRQ_UART_Interrupts,//UART);//flags
}

void UART_send_u8(int message) {
	while (!(IORD_ALTERA_AVALON_UART_STATUS(UART_0_BASE)
   21820:	103ffb26 	beq	r2,zero,21810 <__alt_data_end+0xfffe1810>
			& ALTERA_AVALON_UART_STATUS_TRDY_MSK))
		;
	IOWR_ALTERA_AVALON_UART_TXDATA(UART_0_BASE, message);
   21824:	00800134 	movhi	r2,4
   21828:	10880904 	addi	r2,r2,8228
   2182c:	e0ffff17 	ldw	r3,-4(fp)
   21830:	10c00035 	stwio	r3,0(r2)
}
   21834:	0001883a 	nop
   21838:	e037883a 	mov	sp,fp
   2183c:	df000017 	ldw	fp,0(sp)
   21840:	dec00104 	addi	sp,sp,4
   21844:	f800283a 	ret

00021848 <UART_send_u32>:

void UART_send_u32(int message) {
   21848:	defffe04 	addi	sp,sp,-8
   2184c:	df000115 	stw	fp,4(sp)
   21850:	df000104 	addi	fp,sp,4
   21854:	e13fff15 	stw	r4,-4(fp)
	while (!(IORD_ALTERA_AVALON_UART_STATUS(UART_0_BASE)
   21858:	0001883a 	nop
   2185c:	00800134 	movhi	r2,4
   21860:	10880a04 	addi	r2,r2,8232
   21864:	10800037 	ldwio	r2,0(r2)
			& ALTERA_AVALON_UART_STATUS_TRDY_MSK))
   21868:	1080100c 	andi	r2,r2,64
		;
	IOWR_ALTERA_AVALON_UART_TXDATA(UART_0_BASE, message);
}

void UART_send_u32(int message) {
	while (!(IORD_ALTERA_AVALON_UART_STATUS(UART_0_BASE)
   2186c:	103ffb26 	beq	r2,zero,2185c <__alt_data_end+0xfffe185c>
			& ALTERA_AVALON_UART_STATUS_TRDY_MSK))
		;
	//
	IOWR_ALTERA_AVALON_UART_TXDATA(UART_0_BASE, message >> 24); //txdata
   21870:	e0bfff17 	ldw	r2,-4(fp)
   21874:	1007d63a 	srai	r3,r2,24
   21878:	00800134 	movhi	r2,4
   2187c:	10880904 	addi	r2,r2,8228
   21880:	10c00035 	stwio	r3,0(r2)
	while (!(IORD_ALTERA_AVALON_UART_STATUS(UART_0_BASE)
   21884:	0001883a 	nop
   21888:	00800134 	movhi	r2,4
   2188c:	10880a04 	addi	r2,r2,8232
   21890:	10800037 	ldwio	r2,0(r2)
			& ALTERA_AVALON_UART_STATUS_TRDY_MSK))
   21894:	1080100c 	andi	r2,r2,64
	while (!(IORD_ALTERA_AVALON_UART_STATUS(UART_0_BASE)
			& ALTERA_AVALON_UART_STATUS_TRDY_MSK))
		;
	//
	IOWR_ALTERA_AVALON_UART_TXDATA(UART_0_BASE, message >> 24); //txdata
	while (!(IORD_ALTERA_AVALON_UART_STATUS(UART_0_BASE)
   21898:	103ffb26 	beq	r2,zero,21888 <__alt_data_end+0xfffe1888>
			& ALTERA_AVALON_UART_STATUS_TRDY_MSK))
		;
	//
	IOWR_ALTERA_AVALON_UART_TXDATA(UART_0_BASE, message >> 16); //txdata
   2189c:	e0bfff17 	ldw	r2,-4(fp)
   218a0:	1007d43a 	srai	r3,r2,16
   218a4:	00800134 	movhi	r2,4
   218a8:	10880904 	addi	r2,r2,8228
   218ac:	10c00035 	stwio	r3,0(r2)
	while (!(IORD_ALTERA_AVALON_UART_STATUS(UART_0_BASE)
   218b0:	0001883a 	nop
   218b4:	00800134 	movhi	r2,4
   218b8:	10880a04 	addi	r2,r2,8232
   218bc:	10800037 	ldwio	r2,0(r2)
			& ALTERA_AVALON_UART_STATUS_TRDY_MSK))
   218c0:	1080100c 	andi	r2,r2,64
	while (!(IORD_ALTERA_AVALON_UART_STATUS(UART_0_BASE)
			& ALTERA_AVALON_UART_STATUS_TRDY_MSK))
		;
	//
	IOWR_ALTERA_AVALON_UART_TXDATA(UART_0_BASE, message >> 16); //txdata
	while (!(IORD_ALTERA_AVALON_UART_STATUS(UART_0_BASE)
   218c4:	103ffb26 	beq	r2,zero,218b4 <__alt_data_end+0xfffe18b4>
			& ALTERA_AVALON_UART_STATUS_TRDY_MSK))
		;
	//
	IOWR_ALTERA_AVALON_UART_TXDATA(UART_0_BASE, message >> 8); //txdata
   218c8:	e0bfff17 	ldw	r2,-4(fp)
   218cc:	1007d23a 	srai	r3,r2,8
   218d0:	00800134 	movhi	r2,4
   218d4:	10880904 	addi	r2,r2,8228
   218d8:	10c00035 	stwio	r3,0(r2)
	while (!(IORD_ALTERA_AVALON_UART_STATUS(UART_0_BASE)
   218dc:	0001883a 	nop
   218e0:	00800134 	movhi	r2,4
   218e4:	10880a04 	addi	r2,r2,8232
   218e8:	10800037 	ldwio	r2,0(r2)
			& ALTERA_AVALON_UART_STATUS_TRDY_MSK))
   218ec:	1080100c 	andi	r2,r2,64
	while (!(IORD_ALTERA_AVALON_UART_STATUS(UART_0_BASE)
			& ALTERA_AVALON_UART_STATUS_TRDY_MSK))
		;
	//
	IOWR_ALTERA_AVALON_UART_TXDATA(UART_0_BASE, message >> 8); //txdata
	while (!(IORD_ALTERA_AVALON_UART_STATUS(UART_0_BASE)
   218f0:	103ffb26 	beq	r2,zero,218e0 <__alt_data_end+0xfffe18e0>
			& ALTERA_AVALON_UART_STATUS_TRDY_MSK))
		;
	//
	IOWR_ALTERA_AVALON_UART_TXDATA(UART_0_BASE, message); //txdata
   218f4:	00800134 	movhi	r2,4
   218f8:	10880904 	addi	r2,r2,8228
   218fc:	e0ffff17 	ldw	r3,-4(fp)
   21900:	10c00035 	stwio	r3,0(r2)
}
   21904:	0001883a 	nop
   21908:	e037883a 	mov	sp,fp
   2190c:	df000017 	ldw	fp,0(sp)
   21910:	dec00104 	addi	sp,sp,4
   21914:	f800283a 	ret

00021918 <main>:
int send_end = 0;
char buffer[20];
short start_getting = 0;
int pointer = 0;
#define COLOR_PRINT 1
int main() {
   21918:	deffdf04 	addi	sp,sp,-132
   2191c:	dfc02015 	stw	ra,128(sp)
   21920:	df001f15 	stw	fp,124(sp)
   21924:	dc401e15 	stw	r17,120(sp)
   21928:	dc001d15 	stw	r16,116(sp)
   2192c:	df001f04 	addi	fp,sp,124
//  while(1){
//	  i++;
//	  UART_send_u32(0x12345678);
//	   usleep(2000);
//  }
	fcntl(STDIN_FILENO, F_SETFL, O_NONBLOCK);
   21930:	01900004 	movi	r6,16384
   21934:	01400104 	movi	r5,4
   21938:	0009883a 	mov	r4,zero
   2193c:	00304b00 	call	304b0 <fcntl>

	printf("DE10-LITE D8M VGA Demo\n");
   21940:	010000f4 	movhi	r4,3
   21944:	210f0404 	addi	r4,r4,15376
   21948:	0025e280 	call	25e28 <puts>
	printf("Imperial College EEE2 Project version\n");
   2194c:	010000f4 	movhi	r4,3
   21950:	210f0a04 	addi	r4,r4,15400
   21954:	0025e280 	call	25e28 <puts>
	IOWR(MIPI_PWDN_N_BASE, 0x00, 0x00);
   21958:	0007883a 	mov	r3,zero
   2195c:	00800134 	movhi	r2,4
   21960:	10842004 	addi	r2,r2,4224
   21964:	10c00035 	stwio	r3,0(r2)
	IOWR(MIPI_RESET_N_BASE, 0x00, 0x00);
   21968:	0007883a 	mov	r3,zero
   2196c:	00800134 	movhi	r2,4
   21970:	10842404 	addi	r2,r2,4240
   21974:	10c00035 	stwio	r3,0(r2)

	usleep(2000);
   21978:	0101f404 	movi	r4,2000
   2197c:	00311100 	call	31110 <usleep>
	IOWR(MIPI_PWDN_N_BASE, 0x00, 0xFF);
   21980:	00c03fc4 	movi	r3,255
   21984:	00800134 	movhi	r2,4
   21988:	10842004 	addi	r2,r2,4224
   2198c:	10c00035 	stwio	r3,0(r2)
	usleep(2000);
   21990:	0101f404 	movi	r4,2000
   21994:	00311100 	call	31110 <usleep>
	IOWR(MIPI_RESET_N_BASE, 0x00, 0xFF);
   21998:	00c03fc4 	movi	r3,255
   2199c:	00800134 	movhi	r2,4
   219a0:	10842404 	addi	r2,r2,4240
   219a4:	10c00035 	stwio	r3,0(r2)

	printf("Image Processor ID: %x\n", IORD(0x42000, EEE_IMGPROC_ID));
   219a8:	00800134 	movhi	r2,4
   219ac:	10880204 	addi	r2,r2,8200
   219b0:	10800037 	ldwio	r2,0(r2)
   219b4:	100b883a 	mov	r5,r2
   219b8:	010000f4 	movhi	r4,3
   219bc:	210f1404 	addi	r4,r4,15440
   219c0:	0025d0c0 	call	25d0c <printf>
	//printf("Image Processor ID: %x\n",IORD(EEE_IMGPROC_0_BASE,EEE_IMGPROC_ID)); //Don't know why this doesn't work - definition is in system.h in BSP

	usleep(2000);
   219c4:	0101f404 	movi	r4,2000
   219c8:	00311100 	call	31110 <usleep>

	// MIPI Init
	if (!MIPI_Init()) {
   219cc:	00216bc0 	call	216bc <MIPI_Init>
   219d0:	1000041e 	bne	r2,zero,219e4 <main+0xcc>
		printf("MIPI_Init Init failed!\r\n");
   219d4:	010000f4 	movhi	r4,3
   219d8:	210f1a04 	addi	r4,r4,15464
   219dc:	0025e280 	call	25e28 <puts>
   219e0:	00000306 	br	219f0 <main+0xd8>
	} else {
		printf("MIPI_Init Init successfully!\r\n");
   219e4:	010000f4 	movhi	r4,3
   219e8:	210f2004 	addi	r4,r4,15488
   219ec:	0025e280 	call	25e28 <puts>
	}

	//   while(1){
	mipi_clear_error();
   219f0:	00213f40 	call	213f4 <mipi_clear_error>
	usleep(50 * 1000);
   219f4:	0130d414 	movui	r4,50000
   219f8:	00311100 	call	31110 <usleep>
	mipi_clear_error();
   219fc:	00213f40 	call	213f4 <mipi_clear_error>
	usleep(1000 * 1000);
   21a00:	010003f4 	movhi	r4,15
   21a04:	21109004 	addi	r4,r4,16960
   21a08:	00311100 	call	31110 <usleep>
	mipi_show_error_info();
   21a0c:	00214ac0 	call	214ac <mipi_show_error_info>
	//	    mipi_show_error_info_more();
	printf("\n");
   21a10:	01000284 	movi	r4,10
   21a14:	0025d500 	call	25d50 <putchar>
		usleep(50*1000);
	}
#endif

	//////////////////////////////////////////////////////////
	alt_u16 bin_level = DEFAULT_LEVEL;
   21a18:	008000c4 	movi	r2,3
   21a1c:	e0bfe40d 	sth	r2,-112(fp)
	alt_u8 manual_focus_step = 10;
   21a20:	00800284 	movi	r2,10
   21a24:	e0bfe485 	stb	r2,-110(fp)
	alt_u16 current_focus = 300;
   21a28:	00804b04 	movi	r2,300
   21a2c:	e0bfe50d 	sth	r2,-108(fp)
	int boundingBoxColour = 0;
   21a30:	e03fe615 	stw	zero,-104(fp)
	alt_u32 exposureTime = EXPOSURE_INIT;
   21a34:	00803ff4 	movhi	r2,255
   21a38:	e0bfe715 	stw	r2,-100(fp)
	alt_u16 gain = GAIN_INIT;
   21a3c:	00802004 	movi	r2,128
   21a40:	e0bfe80d 	sth	r2,-96(fp)

	OV8865SetExposure(exposureTime);
   21a44:	e13fe717 	ldw	r4,-100(fp)
   21a48:	00225d40 	call	225d4 <OV8865SetExposure>
	OV8865SetGain(gain);
   21a4c:	e0bfe80b 	ldhu	r2,-96(fp)
   21a50:	1009883a 	mov	r4,r2
   21a54:	00226800 	call	22680 <OV8865SetGain>
	Focus_Init();
   21a58:	002103c0 	call	2103c <Focus_Init>

	FILE* ser = fopen("/dev/uart_0", "rb+");
   21a5c:	014000f4 	movhi	r5,3
   21a60:	294f2804 	addi	r5,r5,15520
   21a64:	010000f4 	movhi	r4,3
   21a68:	210f2904 	addi	r4,r4,15524
   21a6c:	0024b780 	call	24b78 <fopen>
   21a70:	e0bfe915 	stw	r2,-92(fp)
	if (ser) {
   21a74:	e0bfe917 	ldw	r2,-92(fp)
   21a78:	10000526 	beq	r2,zero,21a90 <main+0x178>
		printf("Opened UART\n");
   21a7c:	010000f4 	movhi	r4,3
   21a80:	210f2c04 	addi	r4,r4,15536
   21a84:	0025e280 	call	25e28 <puts>
	} else {
		printf("Failed to open UART\n");
		while (1)
			;
	}
	IRQ_init();
   21a88:	00217c00 	call	217c0 <IRQ_init>
   21a8c:	00000406 	br	21aa0 <main+0x188>

	FILE* ser = fopen("/dev/uart_0", "rb+");
	if (ser) {
		printf("Opened UART\n");
	} else {
		printf("Failed to open UART\n");
   21a90:	010000f4 	movhi	r4,3
   21a94:	210f2f04 	addi	r4,r4,15548
   21a98:	0025e280 	call	25e28 <puts>
		while (1)
			;
   21a9c:	003fff06 	br	21a9c <__alt_data_end+0xfffe1a9c>
//			MIPI_BIN_LEVEL(bin_level2);
//			// usleep(100000);
//		}
//		IOWR_ALTERA_AVALON_UART_RXDATA(UART_0_BASE, 0);
		// touch KEY0 to trigger Auto focus
		if ((IORD(KEY_BASE,0) & 0x03) == 0x02) {
   21aa0:	00800134 	movhi	r2,4
   21aa4:	10842804 	addi	r2,r2,4256
   21aa8:	10800037 	ldwio	r2,0(r2)
   21aac:	108000cc 	andi	r2,r2,3
   21ab0:	10800098 	cmpnei	r2,r2,2
   21ab4:	1000041e 	bne	r2,zero,21ac8 <main+0x1b0>

			current_focus = Focus_Window(320, 240);
   21ab8:	01403c04 	movi	r5,240
   21abc:	01005004 	movi	r4,320
   21ac0:	00211640 	call	21164 <Focus_Window>
   21ac4:	e0bfe50d 	sth	r2,-108(fp)
		}
		// touch KEY1 to ZOOM
		if ((IORD(KEY_BASE,0) & 0x03) == 0x01) {
   21ac8:	00800134 	movhi	r2,4
   21acc:	10842804 	addi	r2,r2,4256
   21ad0:	10800037 	ldwio	r2,0(r2)
   21ad4:	108000cc 	andi	r2,r2,3
   21ad8:	10800058 	cmpnei	r2,r2,1
   21adc:	1001041e 	bne	r2,zero,21ef0 <main+0x5d8>
			if (bin_level == 3)
   21ae0:	e0bfe40b 	ldhu	r2,-112(fp)
   21ae4:	108000d8 	cmpnei	r2,r2,3
   21ae8:	1000031e 	bne	r2,zero,21af8 <main+0x1e0>
				bin_level = 1;
   21aec:	00800044 	movi	r2,1
   21af0:	e0bfe40d 	sth	r2,-112(fp)
   21af4:	00000306 	br	21b04 <main+0x1ec>
			else
				bin_level++;
   21af8:	e0bfe40b 	ldhu	r2,-112(fp)
   21afc:	10800044 	addi	r2,r2,1
   21b00:	e0bfe40d 	sth	r2,-112(fp)
			printf("set bin level to %d\n", bin_level);
   21b04:	e0bfe40b 	ldhu	r2,-112(fp)
   21b08:	100b883a 	mov	r5,r2
   21b0c:	010000f4 	movhi	r4,3
   21b10:	210f3404 	addi	r4,r4,15568
   21b14:	0025d0c0 	call	25d0c <printf>
			MIPI_BIN_LEVEL(bin_level);
   21b18:	e0bfe40b 	ldhu	r2,-112(fp)
   21b1c:	10803fcc 	andi	r2,r2,255
   21b20:	1009883a 	mov	r4,r2
   21b24:	00227d40 	call	227d4 <MIPI_BIN_LEVEL>
			usleep(500000);
   21b28:	01000234 	movhi	r4,8
   21b2c:	21284804 	addi	r4,r4,-24288
   21b30:	00311100 	call	31110 <usleep>

		//Read messages from the image processor and print them on the terminal
//         int status=IORD(0x42000,EEE_IMGPROC_STATUS);
//                 printf("status:%08x\n",status);
//                 printf("status shift:%08x\n",status>>8);
		while ((IORD(0x42000,EEE_IMGPROC_STATUS) >> 8) & 0xff) { //Find out if there are words to read
   21b34:	0000ee06 	br	21ef0 <main+0x5d8>
			int word = IORD(0x42000, EEE_IMGPROC_MSG); //Get next word from message buffer
   21b38:	00800134 	movhi	r2,4
   21b3c:	10880104 	addi	r2,r2,8196
   21b40:	10800037 	ldwio	r2,0(r2)
   21b44:	e0bfec15 	stw	r2,-80(fp)
//			if (fwrite(&word, 4, 1, ser) != 1)
//#if COLOR_PRINT
//				printf("Error writing to UART");
//#endif
				if (word == EEE_IMGPROC_MSG_START) {
   21b48:	e0bfec17 	ldw	r2,-80(fp)
   21b4c:	10bfffd8 	cmpnei	r2,r2,-1
   21b50:	1000061e 	bne	r2,zero,21b6c <main+0x254>
					UART_send_u8(36); //Newline on message identifier
   21b54:	01000904 	movi	r4,36
   21b58:	00217fc0 	call	217fc <UART_send_u8>
#if COLOR_PRINT
							printf("\n start:\n");
   21b5c:	010000f4 	movhi	r4,3
   21b60:	210f3a04 	addi	r4,r4,15592
   21b64:	0025e280 	call	25e28 <puts>
#endif
					continue;
   21b68:	0000e106 	br	21ef0 <main+0x5d8>
				}
			unsigned int color = (word >> 25) & 0x7F;
   21b6c:	e0bfec17 	ldw	r2,-80(fp)
   21b70:	1004d67a 	srli	r2,r2,25
   21b74:	e0bfed15 	stw	r2,-76(fp)
			unsigned int message_type = (word >> 24) & 0x1;
   21b78:	e0bfec17 	ldw	r2,-80(fp)
   21b7c:	1005d63a 	srai	r2,r2,24
   21b80:	1080004c 	andi	r2,r2,1
   21b84:	e0bfee15 	stw	r2,-72(fp)
			unsigned int distance_raw = word & 0xFFFFF;
   21b88:	e0ffec17 	ldw	r3,-80(fp)
   21b8c:	00800434 	movhi	r2,16
   21b90:	10bfffc4 	addi	r2,r2,-1
   21b94:	1884703a 	and	r2,r3,r2
   21b98:	e0bfef15 	stw	r2,-68(fp)

			int center_x = (word >> 11) & 0x3FF;
   21b9c:	e0bfec17 	ldw	r2,-80(fp)
   21ba0:	1005d2fa 	srai	r2,r2,11
   21ba4:	1080ffcc 	andi	r2,r2,1023
   21ba8:	e0bff015 	stw	r2,-64(fp)
			int center_y = word & 0x3FF;
   21bac:	e0bfec17 	ldw	r2,-80(fp)
   21bb0:	1080ffcc 	andi	r2,r2,1023
   21bb4:	e0bff115 	stw	r2,-60(fp)

//			printf("\n%08x ", word);
			UART_send_u32(word);
   21bb8:	e13fec17 	ldw	r4,-80(fp)
   21bbc:	00218480 	call	21848 <UART_send_u32>

			if (message_type == 0) {
   21bc0:	e0bfee17 	ldw	r2,-72(fp)
   21bc4:	1000a61e 	bne	r2,zero,21e60 <main+0x548>
//				float distance = 5.942e13*pow((float)center_y,-5.001)+6.967;
//				float distance2=4056*pow((float)distance_raw,-0.607)-5.669;
				double p1 = -9.292;
   21bc8:	00818974 	movhi	r2,1573
   21bcc:	10b74bc4 	addi	r2,r2,-8913
   21bd0:	e0bff215 	stw	r2,-56(fp)
   21bd4:	00b008f4 	movhi	r2,49187
   21bd8:	10a56044 	addi	r2,r2,-27263
   21bdc:	e0bff315 	stw	r2,-52(fp)
				double p2 = 6355;
   21be0:	e03ff415 	stw	zero,-48(fp)
   21be4:	00902e74 	movhi	r2,16569
   21be8:	10b4c004 	addi	r2,r2,-11520
   21bec:	e0bff515 	stw	r2,-44(fp)
				double q1 = -189.6;
   21bf0:	008cccf4 	movhi	r2,13107
   21bf4:	108cccc4 	addi	r2,r2,13107
   21bf8:	e0bff615 	stw	r2,-40(fp)
   21bfc:	00b01a34 	movhi	r2,49256
   21c00:	10acccc4 	addi	r2,r2,-19661
   21c04:	e0bff715 	stw	r2,-36(fp)
				double distance = (p1 * center_y + p2) / (center_y + q1);
   21c08:	e13ff117 	ldw	r4,-60(fp)
   21c0c:	002489c0 	call	2489c <__floatsidf>
   21c10:	1011883a 	mov	r8,r2
   21c14:	1813883a 	mov	r9,r3
   21c18:	e1bff217 	ldw	r6,-56(fp)
   21c1c:	e1fff317 	ldw	r7,-52(fp)
   21c20:	4009883a 	mov	r4,r8
   21c24:	480b883a 	mov	r5,r9
   21c28:	00241840 	call	24184 <__muldf3>
   21c2c:	1009883a 	mov	r4,r2
   21c30:	180b883a 	mov	r5,r3
   21c34:	2005883a 	mov	r2,r4
   21c38:	2807883a 	mov	r3,r5
   21c3c:	e1bff417 	ldw	r6,-48(fp)
   21c40:	e1fff517 	ldw	r7,-44(fp)
   21c44:	1009883a 	mov	r4,r2
   21c48:	180b883a 	mov	r5,r3
   21c4c:	0022ff00 	call	22ff0 <__adddf3>
   21c50:	1009883a 	mov	r4,r2
   21c54:	180b883a 	mov	r5,r3
   21c58:	2021883a 	mov	r16,r4
   21c5c:	2823883a 	mov	r17,r5
   21c60:	e13ff117 	ldw	r4,-60(fp)
   21c64:	002489c0 	call	2489c <__floatsidf>
   21c68:	1011883a 	mov	r8,r2
   21c6c:	1813883a 	mov	r9,r3
   21c70:	e1bff617 	ldw	r6,-40(fp)
   21c74:	e1fff717 	ldw	r7,-36(fp)
   21c78:	4009883a 	mov	r4,r8
   21c7c:	480b883a 	mov	r5,r9
   21c80:	0022ff00 	call	22ff0 <__adddf3>
   21c84:	1009883a 	mov	r4,r2
   21c88:	180b883a 	mov	r5,r3
   21c8c:	2005883a 	mov	r2,r4
   21c90:	2807883a 	mov	r3,r5
   21c94:	100d883a 	mov	r6,r2
   21c98:	180f883a 	mov	r7,r3
   21c9c:	8009883a 	mov	r4,r16
   21ca0:	880b883a 	mov	r5,r17
   21ca4:	002389c0 	call	2389c <__divdf3>
   21ca8:	1009883a 	mov	r4,r2
   21cac:	180b883a 	mov	r5,r3
   21cb0:	e13ff815 	stw	r4,-32(fp)
   21cb4:	e17ff915 	stw	r5,-28(fp)
				double distance2 = 3.909e6 / (distance_raw + 2.436e4);
   21cb8:	e13fef17 	ldw	r4,-68(fp)
   21cbc:	00249780 	call	24978 <__floatunsidf>
   21cc0:	1011883a 	mov	r8,r2
   21cc4:	1813883a 	mov	r9,r3
   21cc8:	000d883a 	mov	r6,zero
   21ccc:	01d03634 	movhi	r7,16600
   21cd0:	39f28004 	addi	r7,r7,-13824
   21cd4:	4009883a 	mov	r4,r8
   21cd8:	480b883a 	mov	r5,r9
   21cdc:	0022ff00 	call	22ff0 <__adddf3>
   21ce0:	1009883a 	mov	r4,r2
   21ce4:	180b883a 	mov	r5,r3
   21ce8:	2005883a 	mov	r2,r4
   21cec:	2807883a 	mov	r3,r5
   21cf0:	100d883a 	mov	r6,r2
   21cf4:	180f883a 	mov	r7,r3
   21cf8:	0009883a 	mov	r4,zero
   21cfc:	015053b4 	movhi	r5,16718
   21d00:	2974b104 	addi	r5,r5,-11580
   21d04:	002389c0 	call	2389c <__divdf3>
   21d08:	1009883a 	mov	r4,r2
   21d0c:	180b883a 	mov	r5,r3
   21d10:	e13ffa15 	stw	r4,-24(fp)
   21d14:	e17ffb15 	stw	r5,-20(fp)
#if COLOR_PRINT
				if (color == 0) {
   21d18:	e0bfed17 	ldw	r2,-76(fp)
   21d1c:	1000041e 	bne	r2,zero,21d30 <main+0x418>
					printf("black:");
   21d20:	010000f4 	movhi	r4,3
   21d24:	210f3d04 	addi	r4,r4,15604
   21d28:	0025d0c0 	call	25d0c <printf>
   21d2c:	00003406 	br	21e00 <main+0x4e8>
				} else if (color == 0b0001001) {
   21d30:	e0bfed17 	ldw	r2,-76(fp)
   21d34:	10800258 	cmpnei	r2,r2,9
   21d38:	1000041e 	bne	r2,zero,21d4c <main+0x434>
					printf("white:");
   21d3c:	010000f4 	movhi	r4,3
   21d40:	210f3f04 	addi	r4,r4,15612
   21d44:	0025d0c0 	call	25d0c <printf>
   21d48:	00002d06 	br	21e00 <main+0x4e8>
				} else if (color == 0b0010010) {
   21d4c:	e0bfed17 	ldw	r2,-76(fp)
   21d50:	10800498 	cmpnei	r2,r2,18
   21d54:	1000041e 	bne	r2,zero,21d68 <main+0x450>
					printf("red:");
   21d58:	010000f4 	movhi	r4,3
   21d5c:	210f4104 	addi	r4,r4,15620
   21d60:	0025d0c0 	call	25d0c <printf>
   21d64:	00002606 	br	21e00 <main+0x4e8>
				} else if (color == 0b0011011) {
   21d68:	e0bfed17 	ldw	r2,-76(fp)
   21d6c:	108006d8 	cmpnei	r2,r2,27
   21d70:	1000041e 	bne	r2,zero,21d84 <main+0x46c>
					printf("blue:");
   21d74:	010000f4 	movhi	r4,3
   21d78:	210f4304 	addi	r4,r4,15628
   21d7c:	0025d0c0 	call	25d0c <printf>
   21d80:	00001f06 	br	21e00 <main+0x4e8>
				} else if (color == 0b0100100) {
   21d84:	e0bfed17 	ldw	r2,-76(fp)
   21d88:	10800918 	cmpnei	r2,r2,36
   21d8c:	1000041e 	bne	r2,zero,21da0 <main+0x488>
					printf("yellow:");
   21d90:	010000f4 	movhi	r4,3
   21d94:	210f4504 	addi	r4,r4,15636
   21d98:	0025d0c0 	call	25d0c <printf>
   21d9c:	00001806 	br	21e00 <main+0x4e8>
				} else if (color == 0b0101101) {
   21da0:	e0bfed17 	ldw	r2,-76(fp)
   21da4:	10800b58 	cmpnei	r2,r2,45
   21da8:	1000041e 	bne	r2,zero,21dbc <main+0x4a4>
					printf("purple:");
   21dac:	010000f4 	movhi	r4,3
   21db0:	210f4704 	addi	r4,r4,15644
   21db4:	0025d0c0 	call	25d0c <printf>
   21db8:	00001106 	br	21e00 <main+0x4e8>
				}else if (color == 0b0110110) {
   21dbc:	e0bfed17 	ldw	r2,-76(fp)
   21dc0:	10800d98 	cmpnei	r2,r2,54
   21dc4:	1000041e 	bne	r2,zero,21dd8 <main+0x4c0>
					printf("lgreen:");
   21dc8:	010000f4 	movhi	r4,3
   21dcc:	210f4904 	addi	r4,r4,15652
   21dd0:	0025d0c0 	call	25d0c <printf>
   21dd4:	00000a06 	br	21e00 <main+0x4e8>
				}else if (color == 0b0111111) {
   21dd8:	e0bfed17 	ldw	r2,-76(fp)
   21ddc:	10800fd8 	cmpnei	r2,r2,63
   21de0:	1000041e 	bne	r2,zero,21df4 <main+0x4dc>
					printf("dgreen:");
   21de4:	010000f4 	movhi	r4,3
   21de8:	210f4b04 	addi	r4,r4,15660
   21dec:	0025d0c0 	call	25d0c <printf>
   21df0:	00000306 	br	21e00 <main+0x4e8>
				} else {
					printf("unknown:");
   21df4:	010000f4 	movhi	r4,3
   21df8:	210f4d04 	addi	r4,r4,15668
   21dfc:	0025d0c0 	call	25d0c <printf>
				}
				if (color == 0||color==0b0001001)
   21e00:	e0bfed17 	ldw	r2,-76(fp)
   21e04:	10000326 	beq	r2,zero,21e14 <main+0x4fc>
   21e08:	e0bfed17 	ldw	r2,-76(fp)
   21e0c:	10800258 	cmpnei	r2,r2,9
   21e10:	1000061e 	bne	r2,zero,21e2c <main+0x514>
					printf("c:%u width:%d", color, distance_raw);
   21e14:	e1bfef17 	ldw	r6,-68(fp)
   21e18:	e17fed17 	ldw	r5,-76(fp)
   21e1c:	010000f4 	movhi	r4,3
   21e20:	210f5004 	addi	r4,r4,15680
   21e24:	0025d0c0 	call	25d0c <printf>
   21e28:	00002f06 	br	21ee8 <main+0x5d0>
				else
					printf("c:%u cnt:%d dis:%.2f dis:%.2f", color, distance_raw,
   21e2c:	e0bffa17 	ldw	r2,-24(fp)
   21e30:	d8800115 	stw	r2,4(sp)
   21e34:	e0bffb17 	ldw	r2,-20(fp)
   21e38:	d8800215 	stw	r2,8(sp)
   21e3c:	e0bff917 	ldw	r2,-28(fp)
   21e40:	d8800015 	stw	r2,0(sp)
   21e44:	e1fff817 	ldw	r7,-32(fp)
   21e48:	e1bfef17 	ldw	r6,-68(fp)
   21e4c:	e17fed17 	ldw	r5,-76(fp)
   21e50:	010000f4 	movhi	r4,3
   21e54:	210f5404 	addi	r4,r4,15696
   21e58:	0025d0c0 	call	25d0c <printf>
   21e5c:	00002206 	br	21ee8 <main+0x5d0>
											distance, distance2);
#endif
			} else if (message_type == 1) {
   21e60:	e0bfee17 	ldw	r2,-72(fp)
   21e64:	10800058 	cmpnei	r2,r2,1
   21e68:	10001f1e 	bne	r2,zero,21ee8 <main+0x5d0>
#if COLOR_PRINT

				if (color == 0||color==0b0001001){
   21e6c:	e0bfed17 	ldw	r2,-76(fp)
   21e70:	10000326 	beq	r2,zero,21e80 <main+0x568>
   21e74:	e0bfed17 	ldw	r2,-76(fp)
   21e78:	10800258 	cmpnei	r2,r2,9
   21e7c:	1000121e 	bne	r2,zero,21ec8 <main+0x5b0>
					center_x = (word >> 14) & 0x3FF-320;
   21e80:	e0bfec17 	ldw	r2,-80(fp)
   21e84:	1005d3ba 	srai	r2,r2,14
   21e88:	1080afcc 	andi	r2,r2,703
   21e8c:	e0bff015 	stw	r2,-64(fp)
					int edge_down=(word >> 7) & 0x3F;
   21e90:	e0bfec17 	ldw	r2,-80(fp)
   21e94:	1005d1fa 	srai	r2,r2,7
   21e98:	10800fcc 	andi	r2,r2,63
   21e9c:	e0bffc15 	stw	r2,-16(fp)
					int edge_up=(word) & 0x3F;
   21ea0:	e0bfec17 	ldw	r2,-80(fp)
   21ea4:	10800fcc 	andi	r2,r2,63
   21ea8:	e0bffd15 	stw	r2,-12(fp)
					printf(" c_x:%d edges:%d %d\n", center_x, edge_up,edge_down);
   21eac:	e1fffc17 	ldw	r7,-16(fp)
   21eb0:	e1bffd17 	ldw	r6,-12(fp)
   21eb4:	e17ff017 	ldw	r5,-64(fp)
   21eb8:	010000f4 	movhi	r4,3
   21ebc:	210f5c04 	addi	r4,r4,15728
   21ec0:	0025d0c0 	call	25d0c <printf>
											distance, distance2);
#endif
			} else if (message_type == 1) {
#if COLOR_PRINT

				if (color == 0||color==0b0001001){
   21ec4:	00000806 	br	21ee8 <main+0x5d0>
					int edge_down=(word >> 7) & 0x3F;
					int edge_up=(word) & 0x3F;
					printf(" c_x:%d edges:%d %d\n", center_x, edge_up,edge_down);
				}
				else{
					center_x -= 320;
   21ec8:	e0bff017 	ldw	r2,-64(fp)
   21ecc:	10bfb004 	addi	r2,r2,-320
   21ed0:	e0bff015 	stw	r2,-64(fp)

					printf(" center:%d %d\n", center_x, center_y);
   21ed4:	e1bff117 	ldw	r6,-60(fp)
   21ed8:	e17ff017 	ldw	r5,-64(fp)
   21edc:	010000f4 	movhi	r4,3
   21ee0:	210f6204 	addi	r4,r4,15752
   21ee4:	0025d0c0 	call	25d0c <printf>
				}

#endif
			}
			send_end = 1;
   21ee8:	00800044 	movi	r2,1
   21eec:	d0a8f115 	stw	r2,-23612(gp)

		//Read messages from the image processor and print them on the terminal
//         int status=IORD(0x42000,EEE_IMGPROC_STATUS);
//                 printf("status:%08x\n",status);
//                 printf("status shift:%08x\n",status>>8);
		while ((IORD(0x42000,EEE_IMGPROC_STATUS) >> 8) & 0xff) { //Find out if there are words to read
   21ef0:	00800134 	movhi	r2,4
   21ef4:	10880004 	addi	r2,r2,8192
   21ef8:	10800037 	ldwio	r2,0(r2)
   21efc:	1005d23a 	srai	r2,r2,8
   21f00:	10803fcc 	andi	r2,r2,255
   21f04:	103f0c1e 	bne	r2,zero,21b38 <__alt_data_end+0xfffe1b38>

#endif
			}
			send_end = 1;
		}
		if (send_end) {
   21f08:	d0a8f117 	ldw	r2,-23612(gp)
   21f0c:	10000326 	beq	r2,zero,21f1c <main+0x604>
			UART_send_u8('#');
   21f10:	010008c4 	movi	r4,35
   21f14:	00217fc0 	call	217fc <UART_send_u8>
			send_end = 0;
   21f18:	d028f115 	stw	zero,-23612(gp)
//		}
//		}

		//Main loop delay

		char a = getchar();
   21f1c:	008000f4 	movhi	r2,3
   21f20:	10994004 	addi	r2,r2,25856
   21f24:	10800017 	ldw	r2,0(r2)
   21f28:	10800117 	ldw	r2,4(r2)
   21f2c:	1009883a 	mov	r4,r2
   21f30:	00250dc0 	call	250dc <getc>
   21f34:	e0bfea05 	stb	r2,-88(fp)
		if (a == '\n') {
   21f38:	e0bfea07 	ldb	r2,-88(fp)
   21f3c:	10800298 	cmpnei	r2,r2,10
   21f40:	10006726 	beq	r2,zero,220e0 <main+0x7c8>
			continue;
		}
		if (start_getting) {
   21f44:	d0a8f20b 	ldhu	r2,-23608(gp)
   21f48:	10bfffcc 	andi	r2,r2,65535
   21f4c:	10a0001c 	xori	r2,r2,32768
   21f50:	10a00004 	addi	r2,r2,-32768
   21f54:	10005a26 	beq	r2,zero,220c0 <main+0x7a8>
			if (a == '#') {
   21f58:	e0bfea07 	ldb	r2,-88(fp)
   21f5c:	108008d8 	cmpnei	r2,r2,35
   21f60:	10004d1e 	bne	r2,zero,22098 <main+0x780>
				int command = (buffer[0] << 24) + (buffer[1] << 16)
   21f64:	00800134 	movhi	r2,4
   21f68:	10a24604 	addi	r2,r2,-30440
   21f6c:	10800003 	ldbu	r2,0(r2)
   21f70:	10803fcc 	andi	r2,r2,255
   21f74:	1080201c 	xori	r2,r2,128
   21f78:	10bfe004 	addi	r2,r2,-128
   21f7c:	1006963a 	slli	r3,r2,24
   21f80:	00800134 	movhi	r2,4
   21f84:	10a24604 	addi	r2,r2,-30440
   21f88:	10800043 	ldbu	r2,1(r2)
   21f8c:	10803fcc 	andi	r2,r2,255
   21f90:	1080201c 	xori	r2,r2,128
   21f94:	10bfe004 	addi	r2,r2,-128
   21f98:	1004943a 	slli	r2,r2,16
   21f9c:	1887883a 	add	r3,r3,r2
						+ (buffer[2] << 8) + buffer[3];
   21fa0:	00800134 	movhi	r2,4
   21fa4:	10a24604 	addi	r2,r2,-30440
   21fa8:	10800083 	ldbu	r2,2(r2)
   21fac:	10803fcc 	andi	r2,r2,255
   21fb0:	1080201c 	xori	r2,r2,128
   21fb4:	10bfe004 	addi	r2,r2,-128
   21fb8:	1004923a 	slli	r2,r2,8
   21fbc:	1887883a 	add	r3,r3,r2
   21fc0:	00800134 	movhi	r2,4
   21fc4:	10a24604 	addi	r2,r2,-30440
   21fc8:	108000c3 	ldbu	r2,3(r2)
   21fcc:	10803fcc 	andi	r2,r2,255
   21fd0:	1080201c 	xori	r2,r2,128
   21fd4:	10bfe004 	addi	r2,r2,-128
		if (a == '\n') {
			continue;
		}
		if (start_getting) {
			if (a == '#') {
				int command = (buffer[0] << 24) + (buffer[1] << 16)
   21fd8:	1885883a 	add	r2,r3,r2
   21fdc:	e0bfeb15 	stw	r2,-84(fp)
						+ (buffer[2] << 8) + buffer[3];
//                while(1){
				printf("buffer0: %c buffer1: %c buffer2: %c buffer3: %c\n",
						buffer[0], buffer[1], buffer[2], buffer[3]);
   21fe0:	00800134 	movhi	r2,4
   21fe4:	10a24604 	addi	r2,r2,-30440
   21fe8:	10800003 	ldbu	r2,0(r2)
		if (start_getting) {
			if (a == '#') {
				int command = (buffer[0] << 24) + (buffer[1] << 16)
						+ (buffer[2] << 8) + buffer[3];
//                while(1){
				printf("buffer0: %c buffer1: %c buffer2: %c buffer3: %c\n",
   21fec:	10c03fcc 	andi	r3,r2,255
   21ff0:	18c0201c 	xori	r3,r3,128
   21ff4:	18ffe004 	addi	r3,r3,-128
						buffer[0], buffer[1], buffer[2], buffer[3]);
   21ff8:	00800134 	movhi	r2,4
   21ffc:	10a24604 	addi	r2,r2,-30440
   22000:	10800043 	ldbu	r2,1(r2)
		if (start_getting) {
			if (a == '#') {
				int command = (buffer[0] << 24) + (buffer[1] << 16)
						+ (buffer[2] << 8) + buffer[3];
//                while(1){
				printf("buffer0: %c buffer1: %c buffer2: %c buffer3: %c\n",
   22004:	11003fcc 	andi	r4,r2,255
   22008:	2100201c 	xori	r4,r4,128
   2200c:	213fe004 	addi	r4,r4,-128
						buffer[0], buffer[1], buffer[2], buffer[3]);
   22010:	00800134 	movhi	r2,4
   22014:	10a24604 	addi	r2,r2,-30440
   22018:	10800083 	ldbu	r2,2(r2)
		if (start_getting) {
			if (a == '#') {
				int command = (buffer[0] << 24) + (buffer[1] << 16)
						+ (buffer[2] << 8) + buffer[3];
//                while(1){
				printf("buffer0: %c buffer1: %c buffer2: %c buffer3: %c\n",
   2201c:	11403fcc 	andi	r5,r2,255
   22020:	2940201c 	xori	r5,r5,128
   22024:	297fe004 	addi	r5,r5,-128
						buffer[0], buffer[1], buffer[2], buffer[3]);
   22028:	00800134 	movhi	r2,4
   2202c:	10a24604 	addi	r2,r2,-30440
   22030:	108000c3 	ldbu	r2,3(r2)
		if (start_getting) {
			if (a == '#') {
				int command = (buffer[0] << 24) + (buffer[1] << 16)
						+ (buffer[2] << 8) + buffer[3];
//                while(1){
				printf("buffer0: %c buffer1: %c buffer2: %c buffer3: %c\n",
   22034:	10803fcc 	andi	r2,r2,255
   22038:	1080201c 	xori	r2,r2,128
   2203c:	10bfe004 	addi	r2,r2,-128
   22040:	d8800015 	stw	r2,0(sp)
   22044:	280f883a 	mov	r7,r5
   22048:	200d883a 	mov	r6,r4
   2204c:	180b883a 	mov	r5,r3
   22050:	010000f4 	movhi	r4,3
   22054:	210f6604 	addi	r4,r4,15768
   22058:	0025d0c0 	call	25d0c <printf>
						buffer[0], buffer[1], buffer[2], buffer[3]);
//                }

				start_getting = 0;
   2205c:	d028f20d 	sth	zero,-23608(gp)
				pointer = 0;
   22060:	d028f315 	stw	zero,-23604(gp)
				IOWR(0x42000, EEE_IMGPROC_TUNCOL, command);
   22064:	00800134 	movhi	r2,4
   22068:	10880304 	addi	r2,r2,8204
   2206c:	e0ffeb17 	ldw	r3,-84(fp)
   22070:	10c00035 	stwio	r3,0(r2)
				usleep(100000);
   22074:	010000b4 	movhi	r4,2
   22078:	2121a804 	addi	r4,r4,-31072
   2207c:	00311100 	call	31110 <usleep>
				memset(buffer, 0, 20);
   22080:	01800504 	movi	r6,20
   22084:	000b883a 	mov	r5,zero
   22088:	01000134 	movhi	r4,4
   2208c:	21224604 	addi	r4,r4,-30440
   22090:	0025b540 	call	25b54 <memset>
   22094:	00000f06 	br	220d4 <main+0x7bc>

			} else {
				buffer[pointer] = a;
   22098:	d0e8f317 	ldw	r3,-23604(gp)
   2209c:	00800134 	movhi	r2,4
   220a0:	10a24604 	addi	r2,r2,-30440
   220a4:	10c5883a 	add	r2,r2,r3
   220a8:	e0ffea03 	ldbu	r3,-88(fp)
   220ac:	10c00005 	stb	r3,0(r2)
				pointer++;
   220b0:	d0a8f317 	ldw	r2,-23604(gp)
   220b4:	10800044 	addi	r2,r2,1
   220b8:	d0a8f315 	stw	r2,-23604(gp)
   220bc:	00000506 	br	220d4 <main+0x7bc>
			}
		} else {
			if (a == '$') {
   220c0:	e0bfea07 	ldb	r2,-88(fp)
   220c4:	10800918 	cmpnei	r2,r2,36
   220c8:	1000021e 	bne	r2,zero,220d4 <main+0x7bc>
				start_getting = 1;
   220cc:	00800044 	movi	r2,1
   220d0:	d0a8f20d 	sth	r2,-23608(gp)
			}
		}
		usleep(10000);
   220d4:	0109c404 	movi	r4,10000
   220d8:	00311100 	call	31110 <usleep>
   220dc:	003e7006 	br	21aa0 <__alt_data_end+0xfffe1aa0>

		//Main loop delay

		char a = getchar();
		if (a == '\n') {
			continue;
   220e0:	0001883a 	nop
				start_getting = 1;
			}
		}
		usleep(10000);

	};
   220e4:	003e6e06 	br	21aa0 <__alt_data_end+0xfffe1aa0>

000220e8 <nSWAP16>:
   220e8:	defffd04 	addi	sp,sp,-12
   220ec:	df000215 	stw	fp,8(sp)
   220f0:	df000204 	addi	fp,sp,8
   220f4:	2005883a 	mov	r2,r4
   220f8:	e0bfff0d 	sth	r2,-4(fp)
   220fc:	e0bfff0b 	ldhu	r2,-4(fp)
   22100:	1004d23a 	srli	r2,r2,8
   22104:	e0bffe0d 	sth	r2,-8(fp)
   22108:	e0bfff0b 	ldhu	r2,-4(fp)
   2210c:	1004923a 	slli	r2,r2,8
   22110:	1007883a 	mov	r3,r2
   22114:	e0bffe0b 	ldhu	r2,-8(fp)
   22118:	1884b03a 	or	r2,r3,r2
   2211c:	e0bffe0d 	sth	r2,-8(fp)
   22120:	e0bffe0b 	ldhu	r2,-8(fp)
   22124:	e037883a 	mov	sp,fp
   22128:	df000017 	ldw	fp,0(sp)
   2212c:	dec00104 	addi	sp,sp,4
   22130:	f800283a 	ret

00022134 <MipiBridgeRegWrite>:
   22134:	defffa04 	addi	sp,sp,-24
   22138:	dfc00515 	stw	ra,20(sp)
   2213c:	df000415 	stw	fp,16(sp)
   22140:	df000404 	addi	fp,sp,16
   22144:	2007883a 	mov	r3,r4
   22148:	2805883a 	mov	r2,r5
   2214c:	e0fffe0d 	sth	r3,-8(fp)
   22150:	e0bfff0d 	sth	r2,-4(fp)
   22154:	00800704 	movi	r2,28
   22158:	e0bffd05 	stb	r2,-12(fp)
   2215c:	e0fffd03 	ldbu	r3,-12(fp)
   22160:	e13ffe0b 	ldhu	r4,-8(fp)
   22164:	e17fff04 	addi	r5,fp,-4
   22168:	00800084 	movi	r2,2
   2216c:	d8800015 	stw	r2,0(sp)
   22170:	280f883a 	mov	r7,r5
   22174:	200d883a 	mov	r6,r4
   22178:	180b883a 	mov	r5,r3
   2217c:	01000134 	movhi	r4,4
   22180:	21041804 	addi	r4,r4,4192
   22184:	0020bac0 	call	20bac <OC_I2CL_Write>
   22188:	0001883a 	nop
   2218c:	e037883a 	mov	sp,fp
   22190:	dfc00117 	ldw	ra,4(sp)
   22194:	df000017 	ldw	fp,0(sp)
   22198:	dec00204 	addi	sp,sp,8
   2219c:	f800283a 	ret

000221a0 <MipiBridgeRegRead>:
   221a0:	defffa04 	addi	sp,sp,-24
   221a4:	dfc00515 	stw	ra,20(sp)
   221a8:	df000415 	stw	fp,16(sp)
   221ac:	df000404 	addi	fp,sp,16
   221b0:	2005883a 	mov	r2,r4
   221b4:	e0bfff0d 	sth	r2,-4(fp)
   221b8:	00800704 	movi	r2,28
   221bc:	e0bffd05 	stb	r2,-12(fp)
   221c0:	e0fffd03 	ldbu	r3,-12(fp)
   221c4:	e13fff0b 	ldhu	r4,-4(fp)
   221c8:	e17ffe04 	addi	r5,fp,-8
   221cc:	00800084 	movi	r2,2
   221d0:	d8800015 	stw	r2,0(sp)
   221d4:	280f883a 	mov	r7,r5
   221d8:	200d883a 	mov	r6,r4
   221dc:	180b883a 	mov	r5,r3
   221e0:	01000134 	movhi	r4,4
   221e4:	21041804 	addi	r4,r4,4192
   221e8:	0020dbc0 	call	20dbc <OC_I2CL_Read>
   221ec:	e0bffe0b 	ldhu	r2,-8(fp)
   221f0:	10bfffcc 	andi	r2,r2,65535
   221f4:	1009883a 	mov	r4,r2
   221f8:	00220e80 	call	220e8 <nSWAP16>
   221fc:	e0bffd8d 	sth	r2,-10(fp)
   22200:	e0bffd8b 	ldhu	r2,-10(fp)
   22204:	e037883a 	mov	sp,fp
   22208:	dfc00117 	ldw	ra,4(sp)
   2220c:	df000017 	ldw	fp,0(sp)
   22210:	dec00204 	addi	sp,sp,8
   22214:	f800283a 	ret

00022218 <MipiBridgeInit>:
   22218:	defffb04 	addi	sp,sp,-20
   2221c:	dfc00415 	stw	ra,16(sp)
   22220:	df000315 	stw	fp,12(sp)
   22224:	df000304 	addi	fp,sp,12
   22228:	010000f4 	movhi	r4,3
   2222c:	210f7304 	addi	r4,r4,15820
   22230:	0025e280 	call	25e28 <puts>
   22234:	0009883a 	mov	r4,zero
   22238:	00221a00 	call	221a0 <MipiBridgeRegRead>
   2223c:	e0bffe0d 	sth	r2,-8(fp)
   22240:	e0bffe0b 	ldhu	r2,-8(fp)
   22244:	100b883a 	mov	r5,r2
   22248:	010000f4 	movhi	r4,3
   2224c:	210f7904 	addi	r4,r4,15844
   22250:	0025d0c0 	call	25d0c <printf>
   22254:	00800344 	movi	r2,13
   22258:	e0bfff15 	stw	r2,-4(fp)
   2225c:	e03ffd15 	stw	zero,-12(fp)
   22260:	00002d06 	br	22318 <MipiBridgeInit+0x100>
   22264:	008000f4 	movhi	r2,3
   22268:	10907404 	addi	r2,r2,16848
   2226c:	e0fffd17 	ldw	r3,-12(fp)
   22270:	18c7883a 	add	r3,r3,r3
   22274:	18c7883a 	add	r3,r3,r3
   22278:	10c5883a 	add	r2,r2,r3
   2227c:	1080000b 	ldhu	r2,0(r2)
   22280:	10ffffcc 	andi	r3,r2,65535
   22284:	00bfffd4 	movui	r2,65535
   22288:	18800d1e 	bne	r3,r2,222c0 <MipiBridgeInit+0xa8>
   2228c:	008000f4 	movhi	r2,3
   22290:	10907404 	addi	r2,r2,16848
   22294:	e0fffd17 	ldw	r3,-12(fp)
   22298:	18c7883a 	add	r3,r3,r3
   2229c:	18c7883a 	add	r3,r3,r3
   222a0:	10c5883a 	add	r2,r2,r3
   222a4:	10800084 	addi	r2,r2,2
   222a8:	1080000b 	ldhu	r2,0(r2)
   222ac:	10bfffcc 	andi	r2,r2,65535
   222b0:	1080fa24 	muli	r2,r2,1000
   222b4:	1009883a 	mov	r4,r2
   222b8:	00311100 	call	31110 <usleep>
   222bc:	00001306 	br	2230c <MipiBridgeInit+0xf4>
   222c0:	008000f4 	movhi	r2,3
   222c4:	10907404 	addi	r2,r2,16848
   222c8:	e0fffd17 	ldw	r3,-12(fp)
   222cc:	18c7883a 	add	r3,r3,r3
   222d0:	18c7883a 	add	r3,r3,r3
   222d4:	10c5883a 	add	r2,r2,r3
   222d8:	1080000b 	ldhu	r2,0(r2)
   222dc:	113fffcc 	andi	r4,r2,65535
   222e0:	008000f4 	movhi	r2,3
   222e4:	10907404 	addi	r2,r2,16848
   222e8:	e0fffd17 	ldw	r3,-12(fp)
   222ec:	18c7883a 	add	r3,r3,r3
   222f0:	18c7883a 	add	r3,r3,r3
   222f4:	10c5883a 	add	r2,r2,r3
   222f8:	10800084 	addi	r2,r2,2
   222fc:	1080000b 	ldhu	r2,0(r2)
   22300:	10bfffcc 	andi	r2,r2,65535
   22304:	100b883a 	mov	r5,r2
   22308:	00221340 	call	22134 <MipiBridgeRegWrite>
   2230c:	e0bffd17 	ldw	r2,-12(fp)
   22310:	10800044 	addi	r2,r2,1
   22314:	e0bffd15 	stw	r2,-12(fp)
   22318:	e0fffd17 	ldw	r3,-12(fp)
   2231c:	e0bfff17 	ldw	r2,-4(fp)
   22320:	18bfd016 	blt	r3,r2,22264 <__alt_data_end+0xfffe2264>
   22324:	010000f4 	movhi	r4,3
   22328:	210f8604 	addi	r4,r4,15896
   2232c:	0025e280 	call	25e28 <puts>
   22330:	0001883a 	nop
   22334:	e037883a 	mov	sp,fp
   22338:	dfc00117 	ldw	ra,4(sp)
   2233c:	df000017 	ldw	fp,0(sp)
   22340:	dec00204 	addi	sp,sp,8
   22344:	f800283a 	ret

00022348 <OV8865_read_cmos_sensor_8>:
   22348:	defffb04 	addi	sp,sp,-20
   2234c:	dfc00415 	stw	ra,16(sp)
   22350:	df000315 	stw	fp,12(sp)
   22354:	df000304 	addi	fp,sp,12
   22358:	2005883a 	mov	r2,r4
   2235c:	e0bfff0d 	sth	r2,-4(fp)
   22360:	00801b04 	movi	r2,108
   22364:	e0bffe05 	stb	r2,-8(fp)
   22368:	e0fffe03 	ldbu	r3,-8(fp)
   2236c:	e13fff0b 	ldhu	r4,-4(fp)
   22370:	e17ffe44 	addi	r5,fp,-7
   22374:	00800044 	movi	r2,1
   22378:	d8800015 	stw	r2,0(sp)
   2237c:	280f883a 	mov	r7,r5
   22380:	200d883a 	mov	r6,r4
   22384:	180b883a 	mov	r5,r3
   22388:	01000134 	movhi	r4,4
   2238c:	21041004 	addi	r4,r4,4160
   22390:	0020dbc0 	call	20dbc <OC_I2CL_Read>
   22394:	e0bffe43 	ldbu	r2,-7(fp)
   22398:	e037883a 	mov	sp,fp
   2239c:	dfc00117 	ldw	ra,4(sp)
   223a0:	df000017 	ldw	fp,0(sp)
   223a4:	dec00204 	addi	sp,sp,8
   223a8:	f800283a 	ret

000223ac <OV8865_write_cmos_sensor_8>:
   223ac:	defffa04 	addi	sp,sp,-24
   223b0:	dfc00515 	stw	ra,20(sp)
   223b4:	df000415 	stw	fp,16(sp)
   223b8:	df000404 	addi	fp,sp,16
   223bc:	2007883a 	mov	r3,r4
   223c0:	2805883a 	mov	r2,r5
   223c4:	e0fffe0d 	sth	r3,-8(fp)
   223c8:	e0bfff05 	stb	r2,-4(fp)
   223cc:	00801b04 	movi	r2,108
   223d0:	e0bffd05 	stb	r2,-12(fp)
   223d4:	e0fffd03 	ldbu	r3,-12(fp)
   223d8:	e13ffe0b 	ldhu	r4,-8(fp)
   223dc:	e17fff04 	addi	r5,fp,-4
   223e0:	00800044 	movi	r2,1
   223e4:	d8800015 	stw	r2,0(sp)
   223e8:	280f883a 	mov	r7,r5
   223ec:	200d883a 	mov	r6,r4
   223f0:	180b883a 	mov	r5,r3
   223f4:	01000134 	movhi	r4,4
   223f8:	21041004 	addi	r4,r4,4160
   223fc:	0020bac0 	call	20bac <OC_I2CL_Write>
   22400:	0001883a 	nop
   22404:	e037883a 	mov	sp,fp
   22408:	dfc00117 	ldw	ra,4(sp)
   2240c:	df000017 	ldw	fp,0(sp)
   22410:	dec00204 	addi	sp,sp,8
   22414:	f800283a 	ret

00022418 <OV8865_write_AF>:
   22418:	defffa04 	addi	sp,sp,-24
   2241c:	dfc00515 	stw	ra,20(sp)
   22420:	df000415 	stw	fp,16(sp)
   22424:	df000404 	addi	fp,sp,16
   22428:	2007883a 	mov	r3,r4
   2242c:	2805883a 	mov	r2,r5
   22430:	e0fffe05 	stb	r3,-8(fp)
   22434:	e0bfff05 	stb	r2,-4(fp)
   22438:	00800604 	movi	r2,24
   2243c:	e0bffd05 	stb	r2,-12(fp)
   22440:	e0fffd03 	ldbu	r3,-12(fp)
   22444:	e13ffe03 	ldbu	r4,-8(fp)
   22448:	e17fff04 	addi	r5,fp,-4
   2244c:	00800044 	movi	r2,1
   22450:	d8800015 	stw	r2,0(sp)
   22454:	280f883a 	mov	r7,r5
   22458:	200d883a 	mov	r6,r4
   2245c:	180b883a 	mov	r5,r3
   22460:	01000134 	movhi	r4,4
   22464:	21041004 	addi	r4,r4,4160
   22468:	00206440 	call	20644 <OC_I2C_Write>
   2246c:	0001883a 	nop
   22470:	e037883a 	mov	sp,fp
   22474:	dfc00117 	ldw	ra,4(sp)
   22478:	df000017 	ldw	fp,0(sp)
   2247c:	dec00204 	addi	sp,sp,8
   22480:	f800283a 	ret

00022484 <OV8865_read_AF>:
   22484:	defffb04 	addi	sp,sp,-20
   22488:	dfc00415 	stw	ra,16(sp)
   2248c:	df000315 	stw	fp,12(sp)
   22490:	df000304 	addi	fp,sp,12
   22494:	00800604 	movi	r2,24
   22498:	e0bffd05 	stb	r2,-12(fp)
   2249c:	e0bffd03 	ldbu	r2,-12(fp)
   224a0:	e0ffff04 	addi	r3,fp,-4
   224a4:	01c00084 	movi	r7,2
   224a8:	180d883a 	mov	r6,r3
   224ac:	100b883a 	mov	r5,r2
   224b0:	01000134 	movhi	r4,4
   224b4:	21041004 	addi	r4,r4,4160
   224b8:	0020a740 	call	20a74 <OC_I2C_Read_Continue>
   224bc:	e0bffe15 	stw	r2,-8(fp)
   224c0:	e0bffe17 	ldw	r2,-8(fp)
   224c4:	10000926 	beq	r2,zero,224ec <OV8865_read_AF+0x68>
   224c8:	e0bfff03 	ldbu	r2,-4(fp)
   224cc:	10803fcc 	andi	r2,r2,255
   224d0:	e0ffff43 	ldbu	r3,-3(fp)
   224d4:	18c03fcc 	andi	r3,r3,255
   224d8:	180d883a 	mov	r6,r3
   224dc:	100b883a 	mov	r5,r2
   224e0:	010000f4 	movhi	r4,3
   224e4:	210f8c04 	addi	r4,r4,15920
   224e8:	0025d0c0 	call	25d0c <printf>
   224ec:	0001883a 	nop
   224f0:	e037883a 	mov	sp,fp
   224f4:	dfc00117 	ldw	ra,4(sp)
   224f8:	df000017 	ldw	fp,0(sp)
   224fc:	dec00204 	addi	sp,sp,8
   22500:	f800283a 	ret

00022504 <OV8865_FOCUS_Move_to>:
   22504:	defffb04 	addi	sp,sp,-20
   22508:	dfc00415 	stw	ra,16(sp)
   2250c:	df000315 	stw	fp,12(sp)
   22510:	df000304 	addi	fp,sp,12
   22514:	2005883a 	mov	r2,r4
   22518:	e0bfff0d 	sth	r2,-4(fp)
   2251c:	e0bfff0b 	ldhu	r2,-4(fp)
   22520:	10810030 	cmpltui	r2,r2,1024
   22524:	1000021e 	bne	r2,zero,22530 <OV8865_FOCUS_Move_to+0x2c>
   22528:	0080ffc4 	movi	r2,1023
   2252c:	e0bfff0d 	sth	r2,-4(fp)
   22530:	00213440 	call	21344 <Focus_Released>
   22534:	018001b4 	movhi	r6,6
   22538:	3186a004 	addi	r6,r6,6784
   2253c:	0140bef4 	movhi	r5,763
   22540:	297c2004 	addi	r5,r5,-3968
   22544:	01000134 	movhi	r4,4
   22548:	21041004 	addi	r4,r4,4160
   2254c:	00203980 	call	20398 <oc_i2c_init_ex>
   22550:	e0bffd15 	stw	r2,-12(fp)
   22554:	e0bffd17 	ldw	r2,-12(fp)
   22558:	1000031e 	bne	r2,zero,22568 <OV8865_FOCUS_Move_to+0x64>
   2255c:	010000f4 	movhi	r4,3
   22560:	210f9204 	addi	r4,r4,15944
   22564:	0025e280 	call	25e28 <puts>
   22568:	e0bfff0b 	ldhu	r2,-4(fp)
   2256c:	1004d13a 	srli	r2,r2,4
   22570:	e0bffe05 	stb	r2,-8(fp)
   22574:	e0bfff0b 	ldhu	r2,-4(fp)
   22578:	1004913a 	slli	r2,r2,4
   2257c:	e0bffe45 	stb	r2,-7(fp)
   22580:	e0bffe43 	ldbu	r2,-7(fp)
   22584:	10800184 	addi	r2,r2,6
   22588:	e0bffe45 	stb	r2,-7(fp)
   2258c:	e0fffe03 	ldbu	r3,-8(fp)
   22590:	e0bffe43 	ldbu	r2,-7(fp)
   22594:	10800184 	addi	r2,r2,6
   22598:	10803fcc 	andi	r2,r2,255
   2259c:	100b883a 	mov	r5,r2
   225a0:	1809883a 	mov	r4,r3
   225a4:	00224180 	call	22418 <OV8865_write_AF>
   225a8:	0100fa04 	movi	r4,1000
   225ac:	00311100 	call	31110 <usleep>
   225b0:	01000134 	movhi	r4,4
   225b4:	21041004 	addi	r4,r4,4160
   225b8:	00204d40 	call	204d4 <oc_i2c_uninit>
   225bc:	0001883a 	nop
   225c0:	e037883a 	mov	sp,fp
   225c4:	dfc00117 	ldw	ra,4(sp)
   225c8:	df000017 	ldw	fp,0(sp)
   225cc:	dec00204 	addi	sp,sp,8
   225d0:	f800283a 	ret

000225d4 <OV8865SetExposure>:
   225d4:	defffd04 	addi	sp,sp,-12
   225d8:	dfc00215 	stw	ra,8(sp)
   225dc:	df000115 	stw	fp,4(sp)
   225e0:	df000104 	addi	fp,sp,4
   225e4:	e13fff15 	stw	r4,-4(fp)
   225e8:	00213440 	call	21344 <Focus_Released>
   225ec:	e0ffff17 	ldw	r3,-4(fp)
   225f0:	00800434 	movhi	r2,16
   225f4:	18800336 	bltu	r3,r2,22604 <OV8865SetExposure+0x30>
   225f8:	00800434 	movhi	r2,16
   225fc:	10bfffc4 	addi	r2,r2,-1
   22600:	e0bfff15 	stw	r2,-4(fp)
   22604:	e0bfff17 	ldw	r2,-4(fp)
   22608:	10800828 	cmpgeui	r2,r2,32
   2260c:	1000021e 	bne	r2,zero,22618 <OV8865SetExposure+0x44>
   22610:	00800804 	movi	r2,32
   22614:	e0bfff15 	stw	r2,-4(fp)
   22618:	e0bfff17 	ldw	r2,-4(fp)
   2261c:	1004d43a 	srli	r2,r2,16
   22620:	108003cc 	andi	r2,r2,15
   22624:	100b883a 	mov	r5,r2
   22628:	010d4004 	movi	r4,13568
   2262c:	00223ac0 	call	223ac <OV8865_write_cmos_sensor_8>
   22630:	e0bfff17 	ldw	r2,-4(fp)
   22634:	1004d23a 	srli	r2,r2,8
   22638:	10803fcc 	andi	r2,r2,255
   2263c:	100b883a 	mov	r5,r2
   22640:	010d4044 	movi	r4,13569
   22644:	00223ac0 	call	223ac <OV8865_write_cmos_sensor_8>
   22648:	e0bfff17 	ldw	r2,-4(fp)
   2264c:	10803fcc 	andi	r2,r2,255
   22650:	100b883a 	mov	r5,r2
   22654:	010d4084 	movi	r4,13570
   22658:	00223ac0 	call	223ac <OV8865_write_cmos_sensor_8>
   2265c:	01000134 	movhi	r4,4
   22660:	21041004 	addi	r4,r4,4160
   22664:	00204d40 	call	204d4 <oc_i2c_uninit>
   22668:	0001883a 	nop
   2266c:	e037883a 	mov	sp,fp
   22670:	dfc00117 	ldw	ra,4(sp)
   22674:	df000017 	ldw	fp,0(sp)
   22678:	dec00204 	addi	sp,sp,8
   2267c:	f800283a 	ret

00022680 <OV8865SetGain>:
   22680:	defffd04 	addi	sp,sp,-12
   22684:	dfc00215 	stw	ra,8(sp)
   22688:	df000115 	stw	fp,4(sp)
   2268c:	df000104 	addi	fp,sp,4
   22690:	2005883a 	mov	r2,r4
   22694:	e0bfff0d 	sth	r2,-4(fp)
   22698:	00213440 	call	21344 <Focus_Released>
   2269c:	e0bfff0b 	ldhu	r2,-4(fp)
   226a0:	10820030 	cmpltui	r2,r2,2048
   226a4:	1000021e 	bne	r2,zero,226b0 <OV8865SetGain+0x30>
   226a8:	0081ffc4 	movi	r2,2047
   226ac:	e0bfff0d 	sth	r2,-4(fp)
   226b0:	e0bfff0b 	ldhu	r2,-4(fp)
   226b4:	10802028 	cmpgeui	r2,r2,128
   226b8:	1000021e 	bne	r2,zero,226c4 <OV8865SetGain+0x44>
   226bc:	00802004 	movi	r2,128
   226c0:	e0bfff0d 	sth	r2,-4(fp)
   226c4:	e0bfff0b 	ldhu	r2,-4(fp)
   226c8:	1004d23a 	srli	r2,r2,8
   226cc:	10803fcc 	andi	r2,r2,255
   226d0:	108003cc 	andi	r2,r2,15
   226d4:	100b883a 	mov	r5,r2
   226d8:	010d4204 	movi	r4,13576
   226dc:	00223ac0 	call	223ac <OV8865_write_cmos_sensor_8>
   226e0:	e0bfff0b 	ldhu	r2,-4(fp)
   226e4:	10803fcc 	andi	r2,r2,255
   226e8:	100b883a 	mov	r5,r2
   226ec:	010d4244 	movi	r4,13577
   226f0:	00223ac0 	call	223ac <OV8865_write_cmos_sensor_8>
   226f4:	01000134 	movhi	r4,4
   226f8:	21041004 	addi	r4,r4,4160
   226fc:	00204d40 	call	204d4 <oc_i2c_uninit>
   22700:	0001883a 	nop
   22704:	e037883a 	mov	sp,fp
   22708:	dfc00117 	ldw	ra,4(sp)
   2270c:	df000017 	ldw	fp,0(sp)
   22710:	dec00204 	addi	sp,sp,8
   22714:	f800283a 	ret

00022718 <OV8865ReadExposure>:
   22718:	defffb04 	addi	sp,sp,-20
   2271c:	dfc00415 	stw	ra,16(sp)
   22720:	df000315 	stw	fp,12(sp)
   22724:	dc000215 	stw	r16,8(sp)
   22728:	df000304 	addi	fp,sp,12
   2272c:	00213440 	call	21344 <Focus_Released>
   22730:	018001b4 	movhi	r6,6
   22734:	3186a004 	addi	r6,r6,6784
   22738:	0140bef4 	movhi	r5,763
   2273c:	297c2004 	addi	r5,r5,-3968
   22740:	01000134 	movhi	r4,4
   22744:	21041004 	addi	r4,r4,4160
   22748:	00203980 	call	20398 <oc_i2c_init_ex>
   2274c:	e0bffd15 	stw	r2,-12(fp)
   22750:	e0bffd17 	ldw	r2,-12(fp)
   22754:	1000031e 	bne	r2,zero,22764 <OV8865ReadExposure+0x4c>
   22758:	010000f4 	movhi	r4,3
   2275c:	210f9204 	addi	r4,r4,15944
   22760:	0025e280 	call	25e28 <puts>
   22764:	010d4004 	movi	r4,13568
   22768:	00223480 	call	22348 <OV8865_read_cmos_sensor_8>
   2276c:	10803fcc 	andi	r2,r2,255
   22770:	e0bffe15 	stw	r2,-8(fp)
   22774:	e0bffe17 	ldw	r2,-8(fp)
   22778:	1020923a 	slli	r16,r2,8
   2277c:	010d4044 	movi	r4,13569
   22780:	00223480 	call	22348 <OV8865_read_cmos_sensor_8>
   22784:	10803fcc 	andi	r2,r2,255
   22788:	8084b03a 	or	r2,r16,r2
   2278c:	e0bffe15 	stw	r2,-8(fp)
   22790:	e0bffe17 	ldw	r2,-8(fp)
   22794:	1020923a 	slli	r16,r2,8
   22798:	010d4084 	movi	r4,13570
   2279c:	00223480 	call	22348 <OV8865_read_cmos_sensor_8>
   227a0:	10803fcc 	andi	r2,r2,255
   227a4:	8084b03a 	or	r2,r16,r2
   227a8:	e0bffe15 	stw	r2,-8(fp)
   227ac:	01000134 	movhi	r4,4
   227b0:	21041004 	addi	r4,r4,4160
   227b4:	00204d40 	call	204d4 <oc_i2c_uninit>
   227b8:	e0bffe17 	ldw	r2,-8(fp)
   227bc:	e6ffff04 	addi	sp,fp,-4
   227c0:	dfc00217 	ldw	ra,8(sp)
   227c4:	df000117 	ldw	fp,4(sp)
   227c8:	dc000017 	ldw	r16,0(sp)
   227cc:	dec00304 	addi	sp,sp,12
   227d0:	f800283a 	ret

000227d4 <MIPI_BIN_LEVEL>:
   227d4:	defffc04 	addi	sp,sp,-16
   227d8:	dfc00315 	stw	ra,12(sp)
   227dc:	df000215 	stw	fp,8(sp)
   227e0:	df000204 	addi	fp,sp,8
   227e4:	2005883a 	mov	r2,r4
   227e8:	e0bfff05 	stb	r2,-4(fp)
   227ec:	e0bfff03 	ldbu	r2,-4(fp)
   227f0:	108000a8 	cmpgeui	r2,r2,2
   227f4:	1000021e 	bne	r2,zero,22800 <MIPI_BIN_LEVEL+0x2c>
   227f8:	00800044 	movi	r2,1
   227fc:	e0bfff05 	stb	r2,-4(fp)
   22800:	e0bfff03 	ldbu	r2,-4(fp)
   22804:	108000f0 	cmpltui	r2,r2,3
   22808:	1000021e 	bne	r2,zero,22814 <MIPI_BIN_LEVEL+0x40>
   2280c:	008000c4 	movi	r2,3
   22810:	e0bfff05 	stb	r2,-4(fp)
   22814:	00213440 	call	21344 <Focus_Released>
   22818:	018001b4 	movhi	r6,6
   2281c:	3186a004 	addi	r6,r6,6784
   22820:	0140bef4 	movhi	r5,763
   22824:	297c2004 	addi	r5,r5,-3968
   22828:	01000134 	movhi	r4,4
   2282c:	21041004 	addi	r4,r4,4160
   22830:	00203980 	call	20398 <oc_i2c_init_ex>
   22834:	e0bffe15 	stw	r2,-8(fp)
   22838:	e0bffe17 	ldw	r2,-8(fp)
   2283c:	1000031e 	bne	r2,zero,2284c <MIPI_BIN_LEVEL+0x78>
   22840:	010000f4 	movhi	r4,3
   22844:	210f9204 	addi	r4,r4,15944
   22848:	0025e280 	call	25e28 <puts>
   2284c:	000b883a 	mov	r5,zero
   22850:	01004004 	movi	r4,256
   22854:	00223ac0 	call	223ac <OV8865_write_cmos_sensor_8>
   22858:	e0bfff03 	ldbu	r2,-4(fp)
   2285c:	10800058 	cmpnei	r2,r2,1
   22860:	1000131e 	bne	r2,zero,228b0 <MIPI_BIN_LEVEL+0xdc>
   22864:	01400044 	movi	r5,1
   22868:	010e0504 	movi	r4,14356
   2286c:	00223ac0 	call	223ac <OV8865_write_cmos_sensor_8>
   22870:	01400044 	movi	r5,1
   22874:	010e0544 	movi	r4,14357
   22878:	00223ac0 	call	223ac <OV8865_write_cmos_sensor_8>
   2287c:	01400044 	movi	r5,1
   22880:	010e0a84 	movi	r4,14378
   22884:	00223ac0 	call	223ac <OV8865_write_cmos_sensor_8>
   22888:	01400044 	movi	r5,1
   2288c:	010e0ac4 	movi	r4,14379
   22890:	00223ac0 	call	223ac <OV8865_write_cmos_sensor_8>
   22894:	01400204 	movi	r5,8
   22898:	010e0c04 	movi	r4,14384
   2289c:	00223ac0 	call	223ac <OV8865_write_cmos_sensor_8>
   228a0:	01400084 	movi	r5,2
   228a4:	010e0d84 	movi	r4,14390
   228a8:	00223ac0 	call	223ac <OV8865_write_cmos_sensor_8>
   228ac:	00002b06 	br	2295c <MIPI_BIN_LEVEL+0x188>
   228b0:	e0bfff03 	ldbu	r2,-4(fp)
   228b4:	10800098 	cmpnei	r2,r2,2
   228b8:	1000131e 	bne	r2,zero,22908 <MIPI_BIN_LEVEL+0x134>
   228bc:	014000c4 	movi	r5,3
   228c0:	010e0504 	movi	r4,14356
   228c4:	00223ac0 	call	223ac <OV8865_write_cmos_sensor_8>
   228c8:	01400044 	movi	r5,1
   228cc:	010e0544 	movi	r4,14357
   228d0:	00223ac0 	call	223ac <OV8865_write_cmos_sensor_8>
   228d4:	014000c4 	movi	r5,3
   228d8:	010e0a84 	movi	r4,14378
   228dc:	00223ac0 	call	223ac <OV8865_write_cmos_sensor_8>
   228e0:	01400044 	movi	r5,1
   228e4:	010e0ac4 	movi	r4,14379
   228e8:	00223ac0 	call	223ac <OV8865_write_cmos_sensor_8>
   228ec:	01400104 	movi	r5,4
   228f0:	010e0c04 	movi	r4,14384
   228f4:	00223ac0 	call	223ac <OV8865_write_cmos_sensor_8>
   228f8:	01400044 	movi	r5,1
   228fc:	010e0d84 	movi	r4,14390
   22900:	00223ac0 	call	223ac <OV8865_write_cmos_sensor_8>
   22904:	00001506 	br	2295c <MIPI_BIN_LEVEL+0x188>
   22908:	e0bfff03 	ldbu	r2,-4(fp)
   2290c:	108000d8 	cmpnei	r2,r2,3
   22910:	1000121e 	bne	r2,zero,2295c <MIPI_BIN_LEVEL+0x188>
   22914:	014001c4 	movi	r5,7
   22918:	010e0504 	movi	r4,14356
   2291c:	00223ac0 	call	223ac <OV8865_write_cmos_sensor_8>
   22920:	01400044 	movi	r5,1
   22924:	010e0544 	movi	r4,14357
   22928:	00223ac0 	call	223ac <OV8865_write_cmos_sensor_8>
   2292c:	014001c4 	movi	r5,7
   22930:	010e0a84 	movi	r4,14378
   22934:	00223ac0 	call	223ac <OV8865_write_cmos_sensor_8>
   22938:	01400044 	movi	r5,1
   2293c:	010e0ac4 	movi	r4,14379
   22940:	00223ac0 	call	223ac <OV8865_write_cmos_sensor_8>
   22944:	01400204 	movi	r5,8
   22948:	010e0c04 	movi	r4,14384
   2294c:	00223ac0 	call	223ac <OV8865_write_cmos_sensor_8>
   22950:	01400084 	movi	r5,2
   22954:	010e0d84 	movi	r4,14390
   22958:	00223ac0 	call	223ac <OV8865_write_cmos_sensor_8>
   2295c:	0109c404 	movi	r4,10000
   22960:	00311100 	call	31110 <usleep>
   22964:	01400044 	movi	r5,1
   22968:	01004004 	movi	r4,256
   2296c:	00223ac0 	call	223ac <OV8865_write_cmos_sensor_8>
   22970:	01000134 	movhi	r4,4
   22974:	21041004 	addi	r4,r4,4160
   22978:	00204d40 	call	204d4 <oc_i2c_uninit>
   2297c:	0001883a 	nop
   22980:	e037883a 	mov	sp,fp
   22984:	dfc00117 	ldw	ra,4(sp)
   22988:	df000017 	ldw	fp,0(sp)
   2298c:	dec00204 	addi	sp,sp,8
   22990:	f800283a 	ret

00022994 <MipiCameraInit>:
   22994:	defffb04 	addi	sp,sp,-20
   22998:	dfc00415 	stw	ra,16(sp)
   2299c:	df000315 	stw	fp,12(sp)
   229a0:	df000304 	addi	fp,sp,12
   229a4:	00213440 	call	21344 <Focus_Released>
   229a8:	018001b4 	movhi	r6,6
   229ac:	3186a004 	addi	r6,r6,6784
   229b0:	0140bef4 	movhi	r5,763
   229b4:	297c2004 	addi	r5,r5,-3968
   229b8:	01000134 	movhi	r4,4
   229bc:	21041004 	addi	r4,r4,4160
   229c0:	00203980 	call	20398 <oc_i2c_init_ex>
   229c4:	e0bffe15 	stw	r2,-8(fp)
   229c8:	e0bffe17 	ldw	r2,-8(fp)
   229cc:	1000031e 	bne	r2,zero,229dc <MipiCameraInit+0x48>
   229d0:	010000f4 	movhi	r4,3
   229d4:	210f9204 	addi	r4,r4,15944
   229d8:	0025e280 	call	25e28 <puts>
   229dc:	010000f4 	movhi	r4,3
   229e0:	210f9b04 	addi	r4,r4,15980
   229e4:	0025e280 	call	25e28 <puts>
   229e8:	010000f4 	movhi	r4,3
   229ec:	210fa304 	addi	r4,r4,16012
   229f0:	0025e280 	call	25e28 <puts>
   229f4:	e03ffd15 	stw	zero,-12(fp)
   229f8:	00001406 	br	22a4c <MipiCameraInit+0xb8>
   229fc:	e0bffd17 	ldw	r2,-12(fp)
   22a00:	10803fcc 	andi	r2,r2,255
   22a04:	100b883a 	mov	r5,r2
   22a08:	010e0244 	movi	r4,14345
   22a0c:	00223ac0 	call	223ac <OV8865_write_cmos_sensor_8>
   22a10:	01001904 	movi	r4,100
   22a14:	00311100 	call	31110 <usleep>
   22a18:	010e0244 	movi	r4,14345
   22a1c:	00223480 	call	22348 <OV8865_read_cmos_sensor_8>
   22a20:	10803fcc 	andi	r2,r2,255
   22a24:	e1bffd17 	ldw	r6,-12(fp)
   22a28:	100b883a 	mov	r5,r2
   22a2c:	010000f4 	movhi	r4,3
   22a30:	210fa804 	addi	r4,r4,16032
   22a34:	0025d0c0 	call	25d0c <printf>
   22a38:	01001904 	movi	r4,100
   22a3c:	00311100 	call	31110 <usleep>
   22a40:	e0bffd17 	ldw	r2,-12(fp)
   22a44:	10800044 	addi	r2,r2,1
   22a48:	e0bffd15 	stw	r2,-12(fp)
   22a4c:	e0bffd17 	ldw	r2,-12(fp)
   22a50:	10800290 	cmplti	r2,r2,10
   22a54:	103fe91e 	bne	r2,zero,229fc <__alt_data_end+0xfffe29fc>
   22a58:	00804f84 	movi	r2,318
   22a5c:	e0bfff15 	stw	r2,-4(fp)
   22a60:	e03ffd15 	stw	zero,-12(fp)
   22a64:	00003c06 	br	22b58 <MipiCameraInit+0x1c4>
   22a68:	008000f4 	movhi	r2,3
   22a6c:	10908104 	addi	r2,r2,16900
   22a70:	e0fffd17 	ldw	r3,-12(fp)
   22a74:	18c001a4 	muli	r3,r3,6
   22a78:	10c5883a 	add	r2,r2,r3
   22a7c:	10800003 	ldbu	r2,0(r2)
   22a80:	10803fcc 	andi	r2,r2,255
   22a84:	108000d8 	cmpnei	r2,r2,3
   22a88:	10000c1e 	bne	r2,zero,22abc <MipiCameraInit+0x128>
   22a8c:	008000f4 	movhi	r2,3
   22a90:	10908104 	addi	r2,r2,16900
   22a94:	e0fffd17 	ldw	r3,-12(fp)
   22a98:	18c001a4 	muli	r3,r3,6
   22a9c:	10c5883a 	add	r2,r2,r3
   22aa0:	10800104 	addi	r2,r2,4
   22aa4:	10800003 	ldbu	r2,0(r2)
   22aa8:	10803fcc 	andi	r2,r2,255
   22aac:	10801924 	muli	r2,r2,100
   22ab0:	1009883a 	mov	r4,r2
   22ab4:	00311100 	call	31110 <usleep>
   22ab8:	00002406 	br	22b4c <MipiCameraInit+0x1b8>
   22abc:	008000f4 	movhi	r2,3
   22ac0:	10908104 	addi	r2,r2,16900
   22ac4:	e0fffd17 	ldw	r3,-12(fp)
   22ac8:	18c001a4 	muli	r3,r3,6
   22acc:	10c5883a 	add	r2,r2,r3
   22ad0:	10800003 	ldbu	r2,0(r2)
   22ad4:	10803fcc 	andi	r2,r2,255
   22ad8:	10800118 	cmpnei	r2,r2,4
   22adc:	10002226 	beq	r2,zero,22b68 <MipiCameraInit+0x1d4>
   22ae0:	008000f4 	movhi	r2,3
   22ae4:	10908104 	addi	r2,r2,16900
   22ae8:	e0fffd17 	ldw	r3,-12(fp)
   22aec:	18c001a4 	muli	r3,r3,6
   22af0:	10c5883a 	add	r2,r2,r3
   22af4:	10800003 	ldbu	r2,0(r2)
   22af8:	10803fcc 	andi	r2,r2,255
   22afc:	10801b18 	cmpnei	r2,r2,108
   22b00:	1000121e 	bne	r2,zero,22b4c <MipiCameraInit+0x1b8>
   22b04:	008000f4 	movhi	r2,3
   22b08:	10908104 	addi	r2,r2,16900
   22b0c:	e0fffd17 	ldw	r3,-12(fp)
   22b10:	18c001a4 	muli	r3,r3,6
   22b14:	10c5883a 	add	r2,r2,r3
   22b18:	10800084 	addi	r2,r2,2
   22b1c:	1080000b 	ldhu	r2,0(r2)
   22b20:	113fffcc 	andi	r4,r2,65535
   22b24:	008000f4 	movhi	r2,3
   22b28:	10908104 	addi	r2,r2,16900
   22b2c:	e0fffd17 	ldw	r3,-12(fp)
   22b30:	18c001a4 	muli	r3,r3,6
   22b34:	10c5883a 	add	r2,r2,r3
   22b38:	10800104 	addi	r2,r2,4
   22b3c:	10800003 	ldbu	r2,0(r2)
   22b40:	10803fcc 	andi	r2,r2,255
   22b44:	100b883a 	mov	r5,r2
   22b48:	00223ac0 	call	223ac <OV8865_write_cmos_sensor_8>
   22b4c:	e0bffd17 	ldw	r2,-12(fp)
   22b50:	10800044 	addi	r2,r2,1
   22b54:	e0bffd15 	stw	r2,-12(fp)
   22b58:	e0fffd17 	ldw	r3,-12(fp)
   22b5c:	e0bfff17 	ldw	r2,-4(fp)
   22b60:	18bfc116 	blt	r3,r2,22a68 <__alt_data_end+0xfffe2a68>
   22b64:	00000106 	br	22b6c <MipiCameraInit+0x1d8>
   22b68:	0001883a 	nop
   22b6c:	01000134 	movhi	r4,4
   22b70:	21041004 	addi	r4,r4,4160
   22b74:	00204d40 	call	204d4 <oc_i2c_uninit>
   22b78:	010000f4 	movhi	r4,3
   22b7c:	210fab04 	addi	r4,r4,16044
   22b80:	0025e280 	call	25e28 <puts>
   22b84:	0001883a 	nop
   22b88:	e037883a 	mov	sp,fp
   22b8c:	dfc00117 	ldw	ra,4(sp)
   22b90:	df000017 	ldw	fp,0(sp)
   22b94:	dec00204 	addi	sp,sp,8
   22b98:	f800283a 	ret

00022b9c <QUEUE_New>:
   22b9c:	defffb04 	addi	sp,sp,-20
   22ba0:	dfc00415 	stw	ra,16(sp)
   22ba4:	df000315 	stw	fp,12(sp)
   22ba8:	df000304 	addi	fp,sp,12
   22bac:	e13fff15 	stw	r4,-4(fp)
   22bb0:	e0bfff17 	ldw	r2,-4(fp)
   22bb4:	10800144 	addi	r2,r2,5
   22bb8:	1085883a 	add	r2,r2,r2
   22bbc:	1085883a 	add	r2,r2,r2
   22bc0:	e0bffd15 	stw	r2,-12(fp)
   22bc4:	e0bffd17 	ldw	r2,-12(fp)
   22bc8:	1009883a 	mov	r4,r2
   22bcc:	00253200 	call	25320 <malloc>
   22bd0:	e0bffe15 	stw	r2,-8(fp)
   22bd4:	e0bffd17 	ldw	r2,-12(fp)
   22bd8:	100d883a 	mov	r6,r2
   22bdc:	000b883a 	mov	r5,zero
   22be0:	e13ffe17 	ldw	r4,-8(fp)
   22be4:	0025b540 	call	25b54 <memset>
   22be8:	e0ffff17 	ldw	r3,-4(fp)
   22bec:	e0bffe17 	ldw	r2,-8(fp)
   22bf0:	10c00015 	stw	r3,0(r2)
   22bf4:	e0bffe17 	ldw	r2,-8(fp)
   22bf8:	e037883a 	mov	sp,fp
   22bfc:	dfc00117 	ldw	ra,4(sp)
   22c00:	df000017 	ldw	fp,0(sp)
   22c04:	dec00204 	addi	sp,sp,8
   22c08:	f800283a 	ret

00022c0c <QUEUE_Delete>:
   22c0c:	defffd04 	addi	sp,sp,-12
   22c10:	dfc00215 	stw	ra,8(sp)
   22c14:	df000115 	stw	fp,4(sp)
   22c18:	df000104 	addi	fp,sp,4
   22c1c:	e13fff15 	stw	r4,-4(fp)
   22c20:	e13fff17 	ldw	r4,-4(fp)
   22c24:	00253340 	call	25334 <free>
   22c28:	0001883a 	nop
   22c2c:	e037883a 	mov	sp,fp
   22c30:	dfc00117 	ldw	ra,4(sp)
   22c34:	df000017 	ldw	fp,0(sp)
   22c38:	dec00204 	addi	sp,sp,8
   22c3c:	f800283a 	ret

00022c40 <QUEUE_IsEmpty>:
   22c40:	defffe04 	addi	sp,sp,-8
   22c44:	df000115 	stw	fp,4(sp)
   22c48:	df000104 	addi	fp,sp,4
   22c4c:	e13fff15 	stw	r4,-4(fp)
   22c50:	e0bfff17 	ldw	r2,-4(fp)
   22c54:	10c00117 	ldw	r3,4(r2)
   22c58:	e0bfff17 	ldw	r2,-4(fp)
   22c5c:	10800217 	ldw	r2,8(r2)
   22c60:	1880021e 	bne	r3,r2,22c6c <QUEUE_IsEmpty+0x2c>
   22c64:	00800044 	movi	r2,1
   22c68:	00000106 	br	22c70 <QUEUE_IsEmpty+0x30>
   22c6c:	0005883a 	mov	r2,zero
   22c70:	e037883a 	mov	sp,fp
   22c74:	df000017 	ldw	fp,0(sp)
   22c78:	dec00104 	addi	sp,sp,4
   22c7c:	f800283a 	ret

00022c80 <QUEUE_IsFull>:
   22c80:	defffd04 	addi	sp,sp,-12
   22c84:	dfc00215 	stw	ra,8(sp)
   22c88:	df000115 	stw	fp,4(sp)
   22c8c:	df000104 	addi	fp,sp,4
   22c90:	e13fff15 	stw	r4,-4(fp)
   22c94:	e0bfff17 	ldw	r2,-4(fp)
   22c98:	10800117 	ldw	r2,4(r2)
   22c9c:	10c00044 	addi	r3,r2,1
   22ca0:	e0bfff17 	ldw	r2,-4(fp)
   22ca4:	10800017 	ldw	r2,0(r2)
   22ca8:	100b883a 	mov	r5,r2
   22cac:	1809883a 	mov	r4,r3
   22cb0:	0022f980 	call	22f98 <__umodsi3>
   22cb4:	1007883a 	mov	r3,r2
   22cb8:	e0bfff17 	ldw	r2,-4(fp)
   22cbc:	10800217 	ldw	r2,8(r2)
   22cc0:	1880021e 	bne	r3,r2,22ccc <QUEUE_IsFull+0x4c>
   22cc4:	00800044 	movi	r2,1
   22cc8:	00000106 	br	22cd0 <QUEUE_IsFull+0x50>
   22ccc:	0005883a 	mov	r2,zero
   22cd0:	e037883a 	mov	sp,fp
   22cd4:	dfc00117 	ldw	ra,4(sp)
   22cd8:	df000017 	ldw	fp,0(sp)
   22cdc:	dec00204 	addi	sp,sp,8
   22ce0:	f800283a 	ret

00022ce4 <QUEUE_Push>:
   22ce4:	defffc04 	addi	sp,sp,-16
   22ce8:	dfc00315 	stw	ra,12(sp)
   22cec:	df000215 	stw	fp,8(sp)
   22cf0:	df000204 	addi	fp,sp,8
   22cf4:	e13ffe15 	stw	r4,-8(fp)
   22cf8:	e17fff15 	stw	r5,-4(fp)
   22cfc:	e13ffe17 	ldw	r4,-8(fp)
   22d00:	0022c800 	call	22c80 <QUEUE_IsFull>
   22d04:	10000226 	beq	r2,zero,22d10 <QUEUE_Push+0x2c>
   22d08:	0005883a 	mov	r2,zero
   22d0c:	00001506 	br	22d64 <QUEUE_Push+0x80>
   22d10:	e0bffe17 	ldw	r2,-8(fp)
   22d14:	10800117 	ldw	r2,4(r2)
   22d18:	e0fffe17 	ldw	r3,-8(fp)
   22d1c:	108000c4 	addi	r2,r2,3
   22d20:	1085883a 	add	r2,r2,r2
   22d24:	1085883a 	add	r2,r2,r2
   22d28:	1885883a 	add	r2,r3,r2
   22d2c:	e0ffff17 	ldw	r3,-4(fp)
   22d30:	10c00015 	stw	r3,0(r2)
   22d34:	e0bffe17 	ldw	r2,-8(fp)
   22d38:	10800117 	ldw	r2,4(r2)
   22d3c:	10c00044 	addi	r3,r2,1
   22d40:	e0bffe17 	ldw	r2,-8(fp)
   22d44:	10800017 	ldw	r2,0(r2)
   22d48:	100b883a 	mov	r5,r2
   22d4c:	1809883a 	mov	r4,r3
   22d50:	0022f980 	call	22f98 <__umodsi3>
   22d54:	1007883a 	mov	r3,r2
   22d58:	e0bffe17 	ldw	r2,-8(fp)
   22d5c:	10c00115 	stw	r3,4(r2)
   22d60:	00800044 	movi	r2,1
   22d64:	e037883a 	mov	sp,fp
   22d68:	dfc00117 	ldw	ra,4(sp)
   22d6c:	df000017 	ldw	fp,0(sp)
   22d70:	dec00204 	addi	sp,sp,8
   22d74:	f800283a 	ret

00022d78 <QUEUE_Pop>:
   22d78:	defffc04 	addi	sp,sp,-16
   22d7c:	dfc00315 	stw	ra,12(sp)
   22d80:	df000215 	stw	fp,8(sp)
   22d84:	df000204 	addi	fp,sp,8
   22d88:	e13fff15 	stw	r4,-4(fp)
   22d8c:	e13fff17 	ldw	r4,-4(fp)
   22d90:	0022c400 	call	22c40 <QUEUE_IsEmpty>
   22d94:	10000226 	beq	r2,zero,22da0 <QUEUE_Pop+0x28>
   22d98:	0005883a 	mov	r2,zero
   22d9c:	00001506 	br	22df4 <QUEUE_Pop+0x7c>
   22da0:	e0bfff17 	ldw	r2,-4(fp)
   22da4:	10800217 	ldw	r2,8(r2)
   22da8:	e0ffff17 	ldw	r3,-4(fp)
   22dac:	108000c4 	addi	r2,r2,3
   22db0:	1085883a 	add	r2,r2,r2
   22db4:	1085883a 	add	r2,r2,r2
   22db8:	1885883a 	add	r2,r3,r2
   22dbc:	10800017 	ldw	r2,0(r2)
   22dc0:	e0bffe15 	stw	r2,-8(fp)
   22dc4:	e0bfff17 	ldw	r2,-4(fp)
   22dc8:	10800217 	ldw	r2,8(r2)
   22dcc:	10c00044 	addi	r3,r2,1
   22dd0:	e0bfff17 	ldw	r2,-4(fp)
   22dd4:	10800017 	ldw	r2,0(r2)
   22dd8:	100b883a 	mov	r5,r2
   22ddc:	1809883a 	mov	r4,r3
   22de0:	0022f980 	call	22f98 <__umodsi3>
   22de4:	1007883a 	mov	r3,r2
   22de8:	e0bfff17 	ldw	r2,-4(fp)
   22dec:	10c00215 	stw	r3,8(r2)
   22df0:	e0bffe17 	ldw	r2,-8(fp)
   22df4:	e037883a 	mov	sp,fp
   22df8:	dfc00117 	ldw	ra,4(sp)
   22dfc:	df000017 	ldw	fp,0(sp)
   22e00:	dec00204 	addi	sp,sp,8
   22e04:	f800283a 	ret

00022e08 <QUEUE_Empty>:
   22e08:	defffe04 	addi	sp,sp,-8
   22e0c:	df000115 	stw	fp,4(sp)
   22e10:	df000104 	addi	fp,sp,4
   22e14:	e13fff15 	stw	r4,-4(fp)
   22e18:	e0bfff17 	ldw	r2,-4(fp)
   22e1c:	10000115 	stw	zero,4(r2)
   22e20:	e0bfff17 	ldw	r2,-4(fp)
   22e24:	10000215 	stw	zero,8(r2)
   22e28:	0001883a 	nop
   22e2c:	e037883a 	mov	sp,fp
   22e30:	df000017 	ldw	fp,0(sp)
   22e34:	dec00104 	addi	sp,sp,4
   22e38:	f800283a 	ret

00022e3c <__divsi3>:
   22e3c:	20001b16 	blt	r4,zero,22eac <__divsi3+0x70>
   22e40:	000f883a 	mov	r7,zero
   22e44:	28001616 	blt	r5,zero,22ea0 <__divsi3+0x64>
   22e48:	200d883a 	mov	r6,r4
   22e4c:	29001a2e 	bgeu	r5,r4,22eb8 <__divsi3+0x7c>
   22e50:	00800804 	movi	r2,32
   22e54:	00c00044 	movi	r3,1
   22e58:	00000106 	br	22e60 <__divsi3+0x24>
   22e5c:	10000d26 	beq	r2,zero,22e94 <__divsi3+0x58>
   22e60:	294b883a 	add	r5,r5,r5
   22e64:	10bfffc4 	addi	r2,r2,-1
   22e68:	18c7883a 	add	r3,r3,r3
   22e6c:	293ffb36 	bltu	r5,r4,22e5c <__alt_data_end+0xfffe2e5c>
   22e70:	0005883a 	mov	r2,zero
   22e74:	18000726 	beq	r3,zero,22e94 <__divsi3+0x58>
   22e78:	0005883a 	mov	r2,zero
   22e7c:	31400236 	bltu	r6,r5,22e88 <__divsi3+0x4c>
   22e80:	314dc83a 	sub	r6,r6,r5
   22e84:	10c4b03a 	or	r2,r2,r3
   22e88:	1806d07a 	srli	r3,r3,1
   22e8c:	280ad07a 	srli	r5,r5,1
   22e90:	183ffa1e 	bne	r3,zero,22e7c <__alt_data_end+0xfffe2e7c>
   22e94:	38000126 	beq	r7,zero,22e9c <__divsi3+0x60>
   22e98:	0085c83a 	sub	r2,zero,r2
   22e9c:	f800283a 	ret
   22ea0:	014bc83a 	sub	r5,zero,r5
   22ea4:	39c0005c 	xori	r7,r7,1
   22ea8:	003fe706 	br	22e48 <__alt_data_end+0xfffe2e48>
   22eac:	0109c83a 	sub	r4,zero,r4
   22eb0:	01c00044 	movi	r7,1
   22eb4:	003fe306 	br	22e44 <__alt_data_end+0xfffe2e44>
   22eb8:	00c00044 	movi	r3,1
   22ebc:	003fee06 	br	22e78 <__alt_data_end+0xfffe2e78>

00022ec0 <__modsi3>:
   22ec0:	20001716 	blt	r4,zero,22f20 <__modsi3+0x60>
   22ec4:	000f883a 	mov	r7,zero
   22ec8:	2005883a 	mov	r2,r4
   22ecc:	28001216 	blt	r5,zero,22f18 <__modsi3+0x58>
   22ed0:	2900162e 	bgeu	r5,r4,22f2c <__modsi3+0x6c>
   22ed4:	01800804 	movi	r6,32
   22ed8:	00c00044 	movi	r3,1
   22edc:	00000106 	br	22ee4 <__modsi3+0x24>
   22ee0:	30000a26 	beq	r6,zero,22f0c <__modsi3+0x4c>
   22ee4:	294b883a 	add	r5,r5,r5
   22ee8:	31bfffc4 	addi	r6,r6,-1
   22eec:	18c7883a 	add	r3,r3,r3
   22ef0:	293ffb36 	bltu	r5,r4,22ee0 <__alt_data_end+0xfffe2ee0>
   22ef4:	18000526 	beq	r3,zero,22f0c <__modsi3+0x4c>
   22ef8:	1806d07a 	srli	r3,r3,1
   22efc:	11400136 	bltu	r2,r5,22f04 <__modsi3+0x44>
   22f00:	1145c83a 	sub	r2,r2,r5
   22f04:	280ad07a 	srli	r5,r5,1
   22f08:	183ffb1e 	bne	r3,zero,22ef8 <__alt_data_end+0xfffe2ef8>
   22f0c:	38000126 	beq	r7,zero,22f14 <__modsi3+0x54>
   22f10:	0085c83a 	sub	r2,zero,r2
   22f14:	f800283a 	ret
   22f18:	014bc83a 	sub	r5,zero,r5
   22f1c:	003fec06 	br	22ed0 <__alt_data_end+0xfffe2ed0>
   22f20:	0109c83a 	sub	r4,zero,r4
   22f24:	01c00044 	movi	r7,1
   22f28:	003fe706 	br	22ec8 <__alt_data_end+0xfffe2ec8>
   22f2c:	00c00044 	movi	r3,1
   22f30:	003ff106 	br	22ef8 <__alt_data_end+0xfffe2ef8>

00022f34 <__udivsi3>:
   22f34:	200d883a 	mov	r6,r4
   22f38:	2900152e 	bgeu	r5,r4,22f90 <__udivsi3+0x5c>
   22f3c:	28001416 	blt	r5,zero,22f90 <__udivsi3+0x5c>
   22f40:	00800804 	movi	r2,32
   22f44:	00c00044 	movi	r3,1
   22f48:	00000206 	br	22f54 <__udivsi3+0x20>
   22f4c:	10000e26 	beq	r2,zero,22f88 <__udivsi3+0x54>
   22f50:	28000516 	blt	r5,zero,22f68 <__udivsi3+0x34>
   22f54:	294b883a 	add	r5,r5,r5
   22f58:	10bfffc4 	addi	r2,r2,-1
   22f5c:	18c7883a 	add	r3,r3,r3
   22f60:	293ffa36 	bltu	r5,r4,22f4c <__alt_data_end+0xfffe2f4c>
   22f64:	18000826 	beq	r3,zero,22f88 <__udivsi3+0x54>
   22f68:	0005883a 	mov	r2,zero
   22f6c:	31400236 	bltu	r6,r5,22f78 <__udivsi3+0x44>
   22f70:	314dc83a 	sub	r6,r6,r5
   22f74:	10c4b03a 	or	r2,r2,r3
   22f78:	1806d07a 	srli	r3,r3,1
   22f7c:	280ad07a 	srli	r5,r5,1
   22f80:	183ffa1e 	bne	r3,zero,22f6c <__alt_data_end+0xfffe2f6c>
   22f84:	f800283a 	ret
   22f88:	0005883a 	mov	r2,zero
   22f8c:	f800283a 	ret
   22f90:	00c00044 	movi	r3,1
   22f94:	003ff406 	br	22f68 <__alt_data_end+0xfffe2f68>

00022f98 <__umodsi3>:
   22f98:	2005883a 	mov	r2,r4
   22f9c:	2900122e 	bgeu	r5,r4,22fe8 <__umodsi3+0x50>
   22fa0:	28001116 	blt	r5,zero,22fe8 <__umodsi3+0x50>
   22fa4:	01800804 	movi	r6,32
   22fa8:	00c00044 	movi	r3,1
   22fac:	00000206 	br	22fb8 <__umodsi3+0x20>
   22fb0:	30000c26 	beq	r6,zero,22fe4 <__umodsi3+0x4c>
   22fb4:	28000516 	blt	r5,zero,22fcc <__umodsi3+0x34>
   22fb8:	294b883a 	add	r5,r5,r5
   22fbc:	31bfffc4 	addi	r6,r6,-1
   22fc0:	18c7883a 	add	r3,r3,r3
   22fc4:	293ffa36 	bltu	r5,r4,22fb0 <__alt_data_end+0xfffe2fb0>
   22fc8:	18000626 	beq	r3,zero,22fe4 <__umodsi3+0x4c>
   22fcc:	1806d07a 	srli	r3,r3,1
   22fd0:	11400136 	bltu	r2,r5,22fd8 <__umodsi3+0x40>
   22fd4:	1145c83a 	sub	r2,r2,r5
   22fd8:	280ad07a 	srli	r5,r5,1
   22fdc:	183ffb1e 	bne	r3,zero,22fcc <__alt_data_end+0xfffe2fcc>
   22fe0:	f800283a 	ret
   22fe4:	f800283a 	ret
   22fe8:	00c00044 	movi	r3,1
   22fec:	003ff706 	br	22fcc <__alt_data_end+0xfffe2fcc>

00022ff0 <__adddf3>:
   22ff0:	02c00434 	movhi	r11,16
   22ff4:	5affffc4 	addi	r11,r11,-1
   22ff8:	2806d7fa 	srli	r3,r5,31
   22ffc:	2ad4703a 	and	r10,r5,r11
   23000:	3ad2703a 	and	r9,r7,r11
   23004:	3804d53a 	srli	r2,r7,20
   23008:	3018d77a 	srli	r12,r6,29
   2300c:	280ad53a 	srli	r5,r5,20
   23010:	501490fa 	slli	r10,r10,3
   23014:	2010d77a 	srli	r8,r4,29
   23018:	481290fa 	slli	r9,r9,3
   2301c:	380ed7fa 	srli	r7,r7,31
   23020:	defffb04 	addi	sp,sp,-20
   23024:	dc800215 	stw	r18,8(sp)
   23028:	dc400115 	stw	r17,4(sp)
   2302c:	dc000015 	stw	r16,0(sp)
   23030:	dfc00415 	stw	ra,16(sp)
   23034:	dcc00315 	stw	r19,12(sp)
   23038:	1c803fcc 	andi	r18,r3,255
   2303c:	2c01ffcc 	andi	r16,r5,2047
   23040:	5210b03a 	or	r8,r10,r8
   23044:	202290fa 	slli	r17,r4,3
   23048:	1081ffcc 	andi	r2,r2,2047
   2304c:	4b12b03a 	or	r9,r9,r12
   23050:	300c90fa 	slli	r6,r6,3
   23054:	91c07526 	beq	r18,r7,2322c <__adddf3+0x23c>
   23058:	8087c83a 	sub	r3,r16,r2
   2305c:	00c0ab0e 	bge	zero,r3,2330c <__adddf3+0x31c>
   23060:	10002a1e 	bne	r2,zero,2310c <__adddf3+0x11c>
   23064:	4984b03a 	or	r2,r9,r6
   23068:	1000961e 	bne	r2,zero,232c4 <__adddf3+0x2d4>
   2306c:	888001cc 	andi	r2,r17,7
   23070:	10000726 	beq	r2,zero,23090 <__adddf3+0xa0>
   23074:	888003cc 	andi	r2,r17,15
   23078:	00c00104 	movi	r3,4
   2307c:	10c00426 	beq	r2,r3,23090 <__adddf3+0xa0>
   23080:	88c7883a 	add	r3,r17,r3
   23084:	1c63803a 	cmpltu	r17,r3,r17
   23088:	4451883a 	add	r8,r8,r17
   2308c:	1823883a 	mov	r17,r3
   23090:	4080202c 	andhi	r2,r8,128
   23094:	10005926 	beq	r2,zero,231fc <__adddf3+0x20c>
   23098:	84000044 	addi	r16,r16,1
   2309c:	0081ffc4 	movi	r2,2047
   230a0:	8080ba26 	beq	r16,r2,2338c <__adddf3+0x39c>
   230a4:	00bfe034 	movhi	r2,65408
   230a8:	10bfffc4 	addi	r2,r2,-1
   230ac:	4090703a 	and	r8,r8,r2
   230b0:	4004977a 	slli	r2,r8,29
   230b4:	4010927a 	slli	r8,r8,9
   230b8:	8822d0fa 	srli	r17,r17,3
   230bc:	8401ffcc 	andi	r16,r16,2047
   230c0:	4010d33a 	srli	r8,r8,12
   230c4:	9007883a 	mov	r3,r18
   230c8:	1444b03a 	or	r2,r2,r17
   230cc:	8401ffcc 	andi	r16,r16,2047
   230d0:	8020953a 	slli	r16,r16,20
   230d4:	18c03fcc 	andi	r3,r3,255
   230d8:	01000434 	movhi	r4,16
   230dc:	213fffc4 	addi	r4,r4,-1
   230e0:	180697fa 	slli	r3,r3,31
   230e4:	4110703a 	and	r8,r8,r4
   230e8:	4410b03a 	or	r8,r8,r16
   230ec:	40c6b03a 	or	r3,r8,r3
   230f0:	dfc00417 	ldw	ra,16(sp)
   230f4:	dcc00317 	ldw	r19,12(sp)
   230f8:	dc800217 	ldw	r18,8(sp)
   230fc:	dc400117 	ldw	r17,4(sp)
   23100:	dc000017 	ldw	r16,0(sp)
   23104:	dec00504 	addi	sp,sp,20
   23108:	f800283a 	ret
   2310c:	0081ffc4 	movi	r2,2047
   23110:	80bfd626 	beq	r16,r2,2306c <__alt_data_end+0xfffe306c>
   23114:	4a402034 	orhi	r9,r9,128
   23118:	00800e04 	movi	r2,56
   2311c:	10c09f16 	blt	r2,r3,2339c <__adddf3+0x3ac>
   23120:	008007c4 	movi	r2,31
   23124:	10c0c216 	blt	r2,r3,23430 <__adddf3+0x440>
   23128:	00800804 	movi	r2,32
   2312c:	10c5c83a 	sub	r2,r2,r3
   23130:	488a983a 	sll	r5,r9,r2
   23134:	30c8d83a 	srl	r4,r6,r3
   23138:	3084983a 	sll	r2,r6,r2
   2313c:	48c6d83a 	srl	r3,r9,r3
   23140:	290cb03a 	or	r6,r5,r4
   23144:	1004c03a 	cmpne	r2,r2,zero
   23148:	308cb03a 	or	r6,r6,r2
   2314c:	898dc83a 	sub	r6,r17,r6
   23150:	89a3803a 	cmpltu	r17,r17,r6
   23154:	40d1c83a 	sub	r8,r8,r3
   23158:	4451c83a 	sub	r8,r8,r17
   2315c:	3023883a 	mov	r17,r6
   23160:	4080202c 	andhi	r2,r8,128
   23164:	10002326 	beq	r2,zero,231f4 <__adddf3+0x204>
   23168:	04c02034 	movhi	r19,128
   2316c:	9cffffc4 	addi	r19,r19,-1
   23170:	44e6703a 	and	r19,r8,r19
   23174:	98007626 	beq	r19,zero,23350 <__adddf3+0x360>
   23178:	9809883a 	mov	r4,r19
   2317c:	0024a200 	call	24a20 <__clzsi2>
   23180:	10fffe04 	addi	r3,r2,-8
   23184:	010007c4 	movi	r4,31
   23188:	20c07716 	blt	r4,r3,23368 <__adddf3+0x378>
   2318c:	00800804 	movi	r2,32
   23190:	10c5c83a 	sub	r2,r2,r3
   23194:	8884d83a 	srl	r2,r17,r2
   23198:	98d0983a 	sll	r8,r19,r3
   2319c:	88e2983a 	sll	r17,r17,r3
   231a0:	1204b03a 	or	r2,r2,r8
   231a4:	1c007416 	blt	r3,r16,23378 <__adddf3+0x388>
   231a8:	1c21c83a 	sub	r16,r3,r16
   231ac:	82000044 	addi	r8,r16,1
   231b0:	00c007c4 	movi	r3,31
   231b4:	1a009116 	blt	r3,r8,233fc <__adddf3+0x40c>
   231b8:	00c00804 	movi	r3,32
   231bc:	1a07c83a 	sub	r3,r3,r8
   231c0:	8a08d83a 	srl	r4,r17,r8
   231c4:	88e2983a 	sll	r17,r17,r3
   231c8:	10c6983a 	sll	r3,r2,r3
   231cc:	1210d83a 	srl	r8,r2,r8
   231d0:	8804c03a 	cmpne	r2,r17,zero
   231d4:	1906b03a 	or	r3,r3,r4
   231d8:	18a2b03a 	or	r17,r3,r2
   231dc:	0021883a 	mov	r16,zero
   231e0:	003fa206 	br	2306c <__alt_data_end+0xfffe306c>
   231e4:	1890b03a 	or	r8,r3,r2
   231e8:	40017d26 	beq	r8,zero,237e0 <__adddf3+0x7f0>
   231ec:	1011883a 	mov	r8,r2
   231f0:	1823883a 	mov	r17,r3
   231f4:	888001cc 	andi	r2,r17,7
   231f8:	103f9e1e 	bne	r2,zero,23074 <__alt_data_end+0xfffe3074>
   231fc:	4004977a 	slli	r2,r8,29
   23200:	8822d0fa 	srli	r17,r17,3
   23204:	4010d0fa 	srli	r8,r8,3
   23208:	9007883a 	mov	r3,r18
   2320c:	1444b03a 	or	r2,r2,r17
   23210:	0101ffc4 	movi	r4,2047
   23214:	81002426 	beq	r16,r4,232a8 <__adddf3+0x2b8>
   23218:	8120703a 	and	r16,r16,r4
   2321c:	01000434 	movhi	r4,16
   23220:	213fffc4 	addi	r4,r4,-1
   23224:	4110703a 	and	r8,r8,r4
   23228:	003fa806 	br	230cc <__alt_data_end+0xfffe30cc>
   2322c:	8089c83a 	sub	r4,r16,r2
   23230:	01005e0e 	bge	zero,r4,233ac <__adddf3+0x3bc>
   23234:	10002b26 	beq	r2,zero,232e4 <__adddf3+0x2f4>
   23238:	0081ffc4 	movi	r2,2047
   2323c:	80bf8b26 	beq	r16,r2,2306c <__alt_data_end+0xfffe306c>
   23240:	4a402034 	orhi	r9,r9,128
   23244:	00800e04 	movi	r2,56
   23248:	1100a40e 	bge	r2,r4,234dc <__adddf3+0x4ec>
   2324c:	498cb03a 	or	r6,r9,r6
   23250:	300ac03a 	cmpne	r5,r6,zero
   23254:	0013883a 	mov	r9,zero
   23258:	2c4b883a 	add	r5,r5,r17
   2325c:	2c63803a 	cmpltu	r17,r5,r17
   23260:	4a11883a 	add	r8,r9,r8
   23264:	8a11883a 	add	r8,r17,r8
   23268:	2823883a 	mov	r17,r5
   2326c:	4080202c 	andhi	r2,r8,128
   23270:	103fe026 	beq	r2,zero,231f4 <__alt_data_end+0xfffe31f4>
   23274:	84000044 	addi	r16,r16,1
   23278:	0081ffc4 	movi	r2,2047
   2327c:	8080d226 	beq	r16,r2,235c8 <__adddf3+0x5d8>
   23280:	00bfe034 	movhi	r2,65408
   23284:	10bfffc4 	addi	r2,r2,-1
   23288:	4090703a 	and	r8,r8,r2
   2328c:	880ad07a 	srli	r5,r17,1
   23290:	400897fa 	slli	r4,r8,31
   23294:	88c0004c 	andi	r3,r17,1
   23298:	28e2b03a 	or	r17,r5,r3
   2329c:	4010d07a 	srli	r8,r8,1
   232a0:	2462b03a 	or	r17,r4,r17
   232a4:	003f7106 	br	2306c <__alt_data_end+0xfffe306c>
   232a8:	4088b03a 	or	r4,r8,r2
   232ac:	20014526 	beq	r4,zero,237c4 <__adddf3+0x7d4>
   232b0:	01000434 	movhi	r4,16
   232b4:	42000234 	orhi	r8,r8,8
   232b8:	213fffc4 	addi	r4,r4,-1
   232bc:	4110703a 	and	r8,r8,r4
   232c0:	003f8206 	br	230cc <__alt_data_end+0xfffe30cc>
   232c4:	18ffffc4 	addi	r3,r3,-1
   232c8:	1800491e 	bne	r3,zero,233f0 <__adddf3+0x400>
   232cc:	898bc83a 	sub	r5,r17,r6
   232d0:	8963803a 	cmpltu	r17,r17,r5
   232d4:	4251c83a 	sub	r8,r8,r9
   232d8:	4451c83a 	sub	r8,r8,r17
   232dc:	2823883a 	mov	r17,r5
   232e0:	003f9f06 	br	23160 <__alt_data_end+0xfffe3160>
   232e4:	4984b03a 	or	r2,r9,r6
   232e8:	103f6026 	beq	r2,zero,2306c <__alt_data_end+0xfffe306c>
   232ec:	213fffc4 	addi	r4,r4,-1
   232f0:	2000931e 	bne	r4,zero,23540 <__adddf3+0x550>
   232f4:	898d883a 	add	r6,r17,r6
   232f8:	3463803a 	cmpltu	r17,r6,r17
   232fc:	4251883a 	add	r8,r8,r9
   23300:	8a11883a 	add	r8,r17,r8
   23304:	3023883a 	mov	r17,r6
   23308:	003fd806 	br	2326c <__alt_data_end+0xfffe326c>
   2330c:	1800541e 	bne	r3,zero,23460 <__adddf3+0x470>
   23310:	80800044 	addi	r2,r16,1
   23314:	1081ffcc 	andi	r2,r2,2047
   23318:	00c00044 	movi	r3,1
   2331c:	1880a00e 	bge	r3,r2,235a0 <__adddf3+0x5b0>
   23320:	8989c83a 	sub	r4,r17,r6
   23324:	8905803a 	cmpltu	r2,r17,r4
   23328:	4267c83a 	sub	r19,r8,r9
   2332c:	98a7c83a 	sub	r19,r19,r2
   23330:	9880202c 	andhi	r2,r19,128
   23334:	10006326 	beq	r2,zero,234c4 <__adddf3+0x4d4>
   23338:	3463c83a 	sub	r17,r6,r17
   2333c:	4a07c83a 	sub	r3,r9,r8
   23340:	344d803a 	cmpltu	r6,r6,r17
   23344:	19a7c83a 	sub	r19,r3,r6
   23348:	3825883a 	mov	r18,r7
   2334c:	983f8a1e 	bne	r19,zero,23178 <__alt_data_end+0xfffe3178>
   23350:	8809883a 	mov	r4,r17
   23354:	0024a200 	call	24a20 <__clzsi2>
   23358:	10800804 	addi	r2,r2,32
   2335c:	10fffe04 	addi	r3,r2,-8
   23360:	010007c4 	movi	r4,31
   23364:	20ff890e 	bge	r4,r3,2318c <__alt_data_end+0xfffe318c>
   23368:	10bff604 	addi	r2,r2,-40
   2336c:	8884983a 	sll	r2,r17,r2
   23370:	0023883a 	mov	r17,zero
   23374:	1c3f8c0e 	bge	r3,r16,231a8 <__alt_data_end+0xfffe31a8>
   23378:	023fe034 	movhi	r8,65408
   2337c:	423fffc4 	addi	r8,r8,-1
   23380:	80e1c83a 	sub	r16,r16,r3
   23384:	1210703a 	and	r8,r2,r8
   23388:	003f3806 	br	2306c <__alt_data_end+0xfffe306c>
   2338c:	9007883a 	mov	r3,r18
   23390:	0011883a 	mov	r8,zero
   23394:	0005883a 	mov	r2,zero
   23398:	003f4c06 	br	230cc <__alt_data_end+0xfffe30cc>
   2339c:	498cb03a 	or	r6,r9,r6
   233a0:	300cc03a 	cmpne	r6,r6,zero
   233a4:	0007883a 	mov	r3,zero
   233a8:	003f6806 	br	2314c <__alt_data_end+0xfffe314c>
   233ac:	20009c1e 	bne	r4,zero,23620 <__adddf3+0x630>
   233b0:	80800044 	addi	r2,r16,1
   233b4:	1141ffcc 	andi	r5,r2,2047
   233b8:	01000044 	movi	r4,1
   233bc:	2140670e 	bge	r4,r5,2355c <__adddf3+0x56c>
   233c0:	0101ffc4 	movi	r4,2047
   233c4:	11007f26 	beq	r2,r4,235c4 <__adddf3+0x5d4>
   233c8:	898d883a 	add	r6,r17,r6
   233cc:	4247883a 	add	r3,r8,r9
   233d0:	3451803a 	cmpltu	r8,r6,r17
   233d4:	40d1883a 	add	r8,r8,r3
   233d8:	402297fa 	slli	r17,r8,31
   233dc:	300cd07a 	srli	r6,r6,1
   233e0:	4010d07a 	srli	r8,r8,1
   233e4:	1021883a 	mov	r16,r2
   233e8:	89a2b03a 	or	r17,r17,r6
   233ec:	003f1f06 	br	2306c <__alt_data_end+0xfffe306c>
   233f0:	0081ffc4 	movi	r2,2047
   233f4:	80bf481e 	bne	r16,r2,23118 <__alt_data_end+0xfffe3118>
   233f8:	003f1c06 	br	2306c <__alt_data_end+0xfffe306c>
   233fc:	843ff844 	addi	r16,r16,-31
   23400:	01000804 	movi	r4,32
   23404:	1406d83a 	srl	r3,r2,r16
   23408:	41005026 	beq	r8,r4,2354c <__adddf3+0x55c>
   2340c:	01001004 	movi	r4,64
   23410:	2211c83a 	sub	r8,r4,r8
   23414:	1204983a 	sll	r2,r2,r8
   23418:	88a2b03a 	or	r17,r17,r2
   2341c:	8822c03a 	cmpne	r17,r17,zero
   23420:	1c62b03a 	or	r17,r3,r17
   23424:	0011883a 	mov	r8,zero
   23428:	0021883a 	mov	r16,zero
   2342c:	003f7106 	br	231f4 <__alt_data_end+0xfffe31f4>
   23430:	193ff804 	addi	r4,r3,-32
   23434:	00800804 	movi	r2,32
   23438:	4908d83a 	srl	r4,r9,r4
   2343c:	18804526 	beq	r3,r2,23554 <__adddf3+0x564>
   23440:	00801004 	movi	r2,64
   23444:	10c5c83a 	sub	r2,r2,r3
   23448:	4886983a 	sll	r3,r9,r2
   2344c:	198cb03a 	or	r6,r3,r6
   23450:	300cc03a 	cmpne	r6,r6,zero
   23454:	218cb03a 	or	r6,r4,r6
   23458:	0007883a 	mov	r3,zero
   2345c:	003f3b06 	br	2314c <__alt_data_end+0xfffe314c>
   23460:	80002a26 	beq	r16,zero,2350c <__adddf3+0x51c>
   23464:	0101ffc4 	movi	r4,2047
   23468:	11006826 	beq	r2,r4,2360c <__adddf3+0x61c>
   2346c:	00c7c83a 	sub	r3,zero,r3
   23470:	42002034 	orhi	r8,r8,128
   23474:	01000e04 	movi	r4,56
   23478:	20c07c16 	blt	r4,r3,2366c <__adddf3+0x67c>
   2347c:	010007c4 	movi	r4,31
   23480:	20c0da16 	blt	r4,r3,237ec <__adddf3+0x7fc>
   23484:	01000804 	movi	r4,32
   23488:	20c9c83a 	sub	r4,r4,r3
   2348c:	4114983a 	sll	r10,r8,r4
   23490:	88cad83a 	srl	r5,r17,r3
   23494:	8908983a 	sll	r4,r17,r4
   23498:	40c6d83a 	srl	r3,r8,r3
   2349c:	5162b03a 	or	r17,r10,r5
   234a0:	2008c03a 	cmpne	r4,r4,zero
   234a4:	8922b03a 	or	r17,r17,r4
   234a8:	3463c83a 	sub	r17,r6,r17
   234ac:	48c7c83a 	sub	r3,r9,r3
   234b0:	344d803a 	cmpltu	r6,r6,r17
   234b4:	1991c83a 	sub	r8,r3,r6
   234b8:	1021883a 	mov	r16,r2
   234bc:	3825883a 	mov	r18,r7
   234c0:	003f2706 	br	23160 <__alt_data_end+0xfffe3160>
   234c4:	24d0b03a 	or	r8,r4,r19
   234c8:	40001b1e 	bne	r8,zero,23538 <__adddf3+0x548>
   234cc:	0005883a 	mov	r2,zero
   234d0:	0007883a 	mov	r3,zero
   234d4:	0021883a 	mov	r16,zero
   234d8:	003f4d06 	br	23210 <__alt_data_end+0xfffe3210>
   234dc:	008007c4 	movi	r2,31
   234e0:	11003c16 	blt	r2,r4,235d4 <__adddf3+0x5e4>
   234e4:	00800804 	movi	r2,32
   234e8:	1105c83a 	sub	r2,r2,r4
   234ec:	488e983a 	sll	r7,r9,r2
   234f0:	310ad83a 	srl	r5,r6,r4
   234f4:	3084983a 	sll	r2,r6,r2
   234f8:	4912d83a 	srl	r9,r9,r4
   234fc:	394ab03a 	or	r5,r7,r5
   23500:	1004c03a 	cmpne	r2,r2,zero
   23504:	288ab03a 	or	r5,r5,r2
   23508:	003f5306 	br	23258 <__alt_data_end+0xfffe3258>
   2350c:	4448b03a 	or	r4,r8,r17
   23510:	20003e26 	beq	r4,zero,2360c <__adddf3+0x61c>
   23514:	00c6303a 	nor	r3,zero,r3
   23518:	18003a1e 	bne	r3,zero,23604 <__adddf3+0x614>
   2351c:	3463c83a 	sub	r17,r6,r17
   23520:	4a07c83a 	sub	r3,r9,r8
   23524:	344d803a 	cmpltu	r6,r6,r17
   23528:	1991c83a 	sub	r8,r3,r6
   2352c:	1021883a 	mov	r16,r2
   23530:	3825883a 	mov	r18,r7
   23534:	003f0a06 	br	23160 <__alt_data_end+0xfffe3160>
   23538:	2023883a 	mov	r17,r4
   2353c:	003f0d06 	br	23174 <__alt_data_end+0xfffe3174>
   23540:	0081ffc4 	movi	r2,2047
   23544:	80bf3f1e 	bne	r16,r2,23244 <__alt_data_end+0xfffe3244>
   23548:	003ec806 	br	2306c <__alt_data_end+0xfffe306c>
   2354c:	0005883a 	mov	r2,zero
   23550:	003fb106 	br	23418 <__alt_data_end+0xfffe3418>
   23554:	0007883a 	mov	r3,zero
   23558:	003fbc06 	br	2344c <__alt_data_end+0xfffe344c>
   2355c:	4444b03a 	or	r2,r8,r17
   23560:	8000871e 	bne	r16,zero,23780 <__adddf3+0x790>
   23564:	1000ba26 	beq	r2,zero,23850 <__adddf3+0x860>
   23568:	4984b03a 	or	r2,r9,r6
   2356c:	103ebf26 	beq	r2,zero,2306c <__alt_data_end+0xfffe306c>
   23570:	8985883a 	add	r2,r17,r6
   23574:	4247883a 	add	r3,r8,r9
   23578:	1451803a 	cmpltu	r8,r2,r17
   2357c:	40d1883a 	add	r8,r8,r3
   23580:	40c0202c 	andhi	r3,r8,128
   23584:	1023883a 	mov	r17,r2
   23588:	183f1a26 	beq	r3,zero,231f4 <__alt_data_end+0xfffe31f4>
   2358c:	00bfe034 	movhi	r2,65408
   23590:	10bfffc4 	addi	r2,r2,-1
   23594:	2021883a 	mov	r16,r4
   23598:	4090703a 	and	r8,r8,r2
   2359c:	003eb306 	br	2306c <__alt_data_end+0xfffe306c>
   235a0:	4444b03a 	or	r2,r8,r17
   235a4:	8000291e 	bne	r16,zero,2364c <__adddf3+0x65c>
   235a8:	10004b1e 	bne	r2,zero,236d8 <__adddf3+0x6e8>
   235ac:	4990b03a 	or	r8,r9,r6
   235b0:	40008b26 	beq	r8,zero,237e0 <__adddf3+0x7f0>
   235b4:	4811883a 	mov	r8,r9
   235b8:	3023883a 	mov	r17,r6
   235bc:	3825883a 	mov	r18,r7
   235c0:	003eaa06 	br	2306c <__alt_data_end+0xfffe306c>
   235c4:	1021883a 	mov	r16,r2
   235c8:	0011883a 	mov	r8,zero
   235cc:	0005883a 	mov	r2,zero
   235d0:	003f0f06 	br	23210 <__alt_data_end+0xfffe3210>
   235d4:	217ff804 	addi	r5,r4,-32
   235d8:	00800804 	movi	r2,32
   235dc:	494ad83a 	srl	r5,r9,r5
   235e0:	20807d26 	beq	r4,r2,237d8 <__adddf3+0x7e8>
   235e4:	00801004 	movi	r2,64
   235e8:	1109c83a 	sub	r4,r2,r4
   235ec:	4912983a 	sll	r9,r9,r4
   235f0:	498cb03a 	or	r6,r9,r6
   235f4:	300cc03a 	cmpne	r6,r6,zero
   235f8:	298ab03a 	or	r5,r5,r6
   235fc:	0013883a 	mov	r9,zero
   23600:	003f1506 	br	23258 <__alt_data_end+0xfffe3258>
   23604:	0101ffc4 	movi	r4,2047
   23608:	113f9a1e 	bne	r2,r4,23474 <__alt_data_end+0xfffe3474>
   2360c:	4811883a 	mov	r8,r9
   23610:	3023883a 	mov	r17,r6
   23614:	1021883a 	mov	r16,r2
   23618:	3825883a 	mov	r18,r7
   2361c:	003e9306 	br	2306c <__alt_data_end+0xfffe306c>
   23620:	8000161e 	bne	r16,zero,2367c <__adddf3+0x68c>
   23624:	444ab03a 	or	r5,r8,r17
   23628:	28005126 	beq	r5,zero,23770 <__adddf3+0x780>
   2362c:	0108303a 	nor	r4,zero,r4
   23630:	20004d1e 	bne	r4,zero,23768 <__adddf3+0x778>
   23634:	89a3883a 	add	r17,r17,r6
   23638:	4253883a 	add	r9,r8,r9
   2363c:	898d803a 	cmpltu	r6,r17,r6
   23640:	3251883a 	add	r8,r6,r9
   23644:	1021883a 	mov	r16,r2
   23648:	003f0806 	br	2326c <__alt_data_end+0xfffe326c>
   2364c:	1000301e 	bne	r2,zero,23710 <__adddf3+0x720>
   23650:	4984b03a 	or	r2,r9,r6
   23654:	10007126 	beq	r2,zero,2381c <__adddf3+0x82c>
   23658:	4811883a 	mov	r8,r9
   2365c:	3023883a 	mov	r17,r6
   23660:	3825883a 	mov	r18,r7
   23664:	0401ffc4 	movi	r16,2047
   23668:	003e8006 	br	2306c <__alt_data_end+0xfffe306c>
   2366c:	4462b03a 	or	r17,r8,r17
   23670:	8822c03a 	cmpne	r17,r17,zero
   23674:	0007883a 	mov	r3,zero
   23678:	003f8b06 	br	234a8 <__alt_data_end+0xfffe34a8>
   2367c:	0141ffc4 	movi	r5,2047
   23680:	11403b26 	beq	r2,r5,23770 <__adddf3+0x780>
   23684:	0109c83a 	sub	r4,zero,r4
   23688:	42002034 	orhi	r8,r8,128
   2368c:	01400e04 	movi	r5,56
   23690:	29006716 	blt	r5,r4,23830 <__adddf3+0x840>
   23694:	014007c4 	movi	r5,31
   23698:	29007016 	blt	r5,r4,2385c <__adddf3+0x86c>
   2369c:	01400804 	movi	r5,32
   236a0:	290bc83a 	sub	r5,r5,r4
   236a4:	4154983a 	sll	r10,r8,r5
   236a8:	890ed83a 	srl	r7,r17,r4
   236ac:	894a983a 	sll	r5,r17,r5
   236b0:	4108d83a 	srl	r4,r8,r4
   236b4:	51e2b03a 	or	r17,r10,r7
   236b8:	280ac03a 	cmpne	r5,r5,zero
   236bc:	8962b03a 	or	r17,r17,r5
   236c0:	89a3883a 	add	r17,r17,r6
   236c4:	2253883a 	add	r9,r4,r9
   236c8:	898d803a 	cmpltu	r6,r17,r6
   236cc:	3251883a 	add	r8,r6,r9
   236d0:	1021883a 	mov	r16,r2
   236d4:	003ee506 	br	2326c <__alt_data_end+0xfffe326c>
   236d8:	4984b03a 	or	r2,r9,r6
   236dc:	103e6326 	beq	r2,zero,2306c <__alt_data_end+0xfffe306c>
   236e0:	8987c83a 	sub	r3,r17,r6
   236e4:	88c9803a 	cmpltu	r4,r17,r3
   236e8:	4245c83a 	sub	r2,r8,r9
   236ec:	1105c83a 	sub	r2,r2,r4
   236f0:	1100202c 	andhi	r4,r2,128
   236f4:	203ebb26 	beq	r4,zero,231e4 <__alt_data_end+0xfffe31e4>
   236f8:	3463c83a 	sub	r17,r6,r17
   236fc:	4a07c83a 	sub	r3,r9,r8
   23700:	344d803a 	cmpltu	r6,r6,r17
   23704:	1991c83a 	sub	r8,r3,r6
   23708:	3825883a 	mov	r18,r7
   2370c:	003e5706 	br	2306c <__alt_data_end+0xfffe306c>
   23710:	4984b03a 	or	r2,r9,r6
   23714:	10002e26 	beq	r2,zero,237d0 <__adddf3+0x7e0>
   23718:	4004d0fa 	srli	r2,r8,3
   2371c:	8822d0fa 	srli	r17,r17,3
   23720:	4010977a 	slli	r8,r8,29
   23724:	10c0022c 	andhi	r3,r2,8
   23728:	4462b03a 	or	r17,r8,r17
   2372c:	18000826 	beq	r3,zero,23750 <__adddf3+0x760>
   23730:	4808d0fa 	srli	r4,r9,3
   23734:	20c0022c 	andhi	r3,r4,8
   23738:	1800051e 	bne	r3,zero,23750 <__adddf3+0x760>
   2373c:	300cd0fa 	srli	r6,r6,3
   23740:	4806977a 	slli	r3,r9,29
   23744:	2005883a 	mov	r2,r4
   23748:	3825883a 	mov	r18,r7
   2374c:	19a2b03a 	or	r17,r3,r6
   23750:	8810d77a 	srli	r8,r17,29
   23754:	100490fa 	slli	r2,r2,3
   23758:	882290fa 	slli	r17,r17,3
   2375c:	0401ffc4 	movi	r16,2047
   23760:	4090b03a 	or	r8,r8,r2
   23764:	003e4106 	br	2306c <__alt_data_end+0xfffe306c>
   23768:	0141ffc4 	movi	r5,2047
   2376c:	117fc71e 	bne	r2,r5,2368c <__alt_data_end+0xfffe368c>
   23770:	4811883a 	mov	r8,r9
   23774:	3023883a 	mov	r17,r6
   23778:	1021883a 	mov	r16,r2
   2377c:	003e3b06 	br	2306c <__alt_data_end+0xfffe306c>
   23780:	10002f26 	beq	r2,zero,23840 <__adddf3+0x850>
   23784:	4984b03a 	or	r2,r9,r6
   23788:	10001126 	beq	r2,zero,237d0 <__adddf3+0x7e0>
   2378c:	4004d0fa 	srli	r2,r8,3
   23790:	8822d0fa 	srli	r17,r17,3
   23794:	4010977a 	slli	r8,r8,29
   23798:	10c0022c 	andhi	r3,r2,8
   2379c:	4462b03a 	or	r17,r8,r17
   237a0:	183feb26 	beq	r3,zero,23750 <__alt_data_end+0xfffe3750>
   237a4:	4808d0fa 	srli	r4,r9,3
   237a8:	20c0022c 	andhi	r3,r4,8
   237ac:	183fe81e 	bne	r3,zero,23750 <__alt_data_end+0xfffe3750>
   237b0:	300cd0fa 	srli	r6,r6,3
   237b4:	4806977a 	slli	r3,r9,29
   237b8:	2005883a 	mov	r2,r4
   237bc:	19a2b03a 	or	r17,r3,r6
   237c0:	003fe306 	br	23750 <__alt_data_end+0xfffe3750>
   237c4:	0011883a 	mov	r8,zero
   237c8:	0005883a 	mov	r2,zero
   237cc:	003e3f06 	br	230cc <__alt_data_end+0xfffe30cc>
   237d0:	0401ffc4 	movi	r16,2047
   237d4:	003e2506 	br	2306c <__alt_data_end+0xfffe306c>
   237d8:	0013883a 	mov	r9,zero
   237dc:	003f8406 	br	235f0 <__alt_data_end+0xfffe35f0>
   237e0:	0005883a 	mov	r2,zero
   237e4:	0007883a 	mov	r3,zero
   237e8:	003e8906 	br	23210 <__alt_data_end+0xfffe3210>
   237ec:	197ff804 	addi	r5,r3,-32
   237f0:	01000804 	movi	r4,32
   237f4:	414ad83a 	srl	r5,r8,r5
   237f8:	19002426 	beq	r3,r4,2388c <__adddf3+0x89c>
   237fc:	01001004 	movi	r4,64
   23800:	20c7c83a 	sub	r3,r4,r3
   23804:	40c6983a 	sll	r3,r8,r3
   23808:	1c46b03a 	or	r3,r3,r17
   2380c:	1806c03a 	cmpne	r3,r3,zero
   23810:	28e2b03a 	or	r17,r5,r3
   23814:	0007883a 	mov	r3,zero
   23818:	003f2306 	br	234a8 <__alt_data_end+0xfffe34a8>
   2381c:	0007883a 	mov	r3,zero
   23820:	5811883a 	mov	r8,r11
   23824:	00bfffc4 	movi	r2,-1
   23828:	0401ffc4 	movi	r16,2047
   2382c:	003e7806 	br	23210 <__alt_data_end+0xfffe3210>
   23830:	4462b03a 	or	r17,r8,r17
   23834:	8822c03a 	cmpne	r17,r17,zero
   23838:	0009883a 	mov	r4,zero
   2383c:	003fa006 	br	236c0 <__alt_data_end+0xfffe36c0>
   23840:	4811883a 	mov	r8,r9
   23844:	3023883a 	mov	r17,r6
   23848:	0401ffc4 	movi	r16,2047
   2384c:	003e0706 	br	2306c <__alt_data_end+0xfffe306c>
   23850:	4811883a 	mov	r8,r9
   23854:	3023883a 	mov	r17,r6
   23858:	003e0406 	br	2306c <__alt_data_end+0xfffe306c>
   2385c:	21fff804 	addi	r7,r4,-32
   23860:	01400804 	movi	r5,32
   23864:	41ced83a 	srl	r7,r8,r7
   23868:	21400a26 	beq	r4,r5,23894 <__adddf3+0x8a4>
   2386c:	01401004 	movi	r5,64
   23870:	2909c83a 	sub	r4,r5,r4
   23874:	4108983a 	sll	r4,r8,r4
   23878:	2448b03a 	or	r4,r4,r17
   2387c:	2008c03a 	cmpne	r4,r4,zero
   23880:	3922b03a 	or	r17,r7,r4
   23884:	0009883a 	mov	r4,zero
   23888:	003f8d06 	br	236c0 <__alt_data_end+0xfffe36c0>
   2388c:	0007883a 	mov	r3,zero
   23890:	003fdd06 	br	23808 <__alt_data_end+0xfffe3808>
   23894:	0009883a 	mov	r4,zero
   23898:	003ff706 	br	23878 <__alt_data_end+0xfffe3878>

0002389c <__divdf3>:
   2389c:	defff204 	addi	sp,sp,-56
   238a0:	dd400915 	stw	r21,36(sp)
   238a4:	282ad53a 	srli	r21,r5,20
   238a8:	dd000815 	stw	r20,32(sp)
   238ac:	2828d7fa 	srli	r20,r5,31
   238b0:	dc000415 	stw	r16,16(sp)
   238b4:	04000434 	movhi	r16,16
   238b8:	df000c15 	stw	fp,48(sp)
   238bc:	843fffc4 	addi	r16,r16,-1
   238c0:	dfc00d15 	stw	ra,52(sp)
   238c4:	ddc00b15 	stw	r23,44(sp)
   238c8:	dd800a15 	stw	r22,40(sp)
   238cc:	dcc00715 	stw	r19,28(sp)
   238d0:	dc800615 	stw	r18,24(sp)
   238d4:	dc400515 	stw	r17,20(sp)
   238d8:	ad41ffcc 	andi	r21,r21,2047
   238dc:	2c20703a 	and	r16,r5,r16
   238e0:	a7003fcc 	andi	fp,r20,255
   238e4:	a8006126 	beq	r21,zero,23a6c <__divdf3+0x1d0>
   238e8:	0081ffc4 	movi	r2,2047
   238ec:	2025883a 	mov	r18,r4
   238f0:	a8803726 	beq	r21,r2,239d0 <__divdf3+0x134>
   238f4:	80800434 	orhi	r2,r16,16
   238f8:	100490fa 	slli	r2,r2,3
   238fc:	2020d77a 	srli	r16,r4,29
   23900:	202490fa 	slli	r18,r4,3
   23904:	ad7f0044 	addi	r21,r21,-1023
   23908:	80a0b03a 	or	r16,r16,r2
   2390c:	0027883a 	mov	r19,zero
   23910:	0013883a 	mov	r9,zero
   23914:	3804d53a 	srli	r2,r7,20
   23918:	382cd7fa 	srli	r22,r7,31
   2391c:	04400434 	movhi	r17,16
   23920:	8c7fffc4 	addi	r17,r17,-1
   23924:	1081ffcc 	andi	r2,r2,2047
   23928:	3011883a 	mov	r8,r6
   2392c:	3c62703a 	and	r17,r7,r17
   23930:	b5c03fcc 	andi	r23,r22,255
   23934:	10006c26 	beq	r2,zero,23ae8 <__divdf3+0x24c>
   23938:	00c1ffc4 	movi	r3,2047
   2393c:	10c06426 	beq	r2,r3,23ad0 <__divdf3+0x234>
   23940:	88c00434 	orhi	r3,r17,16
   23944:	180690fa 	slli	r3,r3,3
   23948:	3022d77a 	srli	r17,r6,29
   2394c:	301090fa 	slli	r8,r6,3
   23950:	10bf0044 	addi	r2,r2,-1023
   23954:	88e2b03a 	or	r17,r17,r3
   23958:	000f883a 	mov	r7,zero
   2395c:	a58cf03a 	xor	r6,r20,r22
   23960:	3cc8b03a 	or	r4,r7,r19
   23964:	a8abc83a 	sub	r21,r21,r2
   23968:	008003c4 	movi	r2,15
   2396c:	3007883a 	mov	r3,r6
   23970:	34c03fcc 	andi	r19,r6,255
   23974:	11009036 	bltu	r2,r4,23bb8 <__divdf3+0x31c>
   23978:	200890ba 	slli	r4,r4,2
   2397c:	008000b4 	movhi	r2,2
   23980:	108e6404 	addi	r2,r2,14736
   23984:	2089883a 	add	r4,r4,r2
   23988:	20800017 	ldw	r2,0(r4)
   2398c:	1000683a 	jmp	r2
   23990:	00023bb8 	rdprs	zero,zero,2286
   23994:	00023a08 	cmpgei	zero,zero,2280
   23998:	00023ba8 	cmpgeui	zero,zero,2286
   2399c:	000239fc 	xorhi	zero,zero,2279
   239a0:	00023ba8 	cmpgeui	zero,zero,2286
   239a4:	00023b7c 	xorhi	zero,zero,2285
   239a8:	00023ba8 	cmpgeui	zero,zero,2286
   239ac:	000239fc 	xorhi	zero,zero,2279
   239b0:	00023a08 	cmpgei	zero,zero,2280
   239b4:	00023a08 	cmpgei	zero,zero,2280
   239b8:	00023b7c 	xorhi	zero,zero,2285
   239bc:	000239fc 	xorhi	zero,zero,2279
   239c0:	000239ec 	andhi	zero,zero,2279
   239c4:	000239ec 	andhi	zero,zero,2279
   239c8:	000239ec 	andhi	zero,zero,2279
   239cc:	00023e9c 	xori	zero,zero,2298
   239d0:	2404b03a 	or	r2,r4,r16
   239d4:	1000661e 	bne	r2,zero,23b70 <__divdf3+0x2d4>
   239d8:	04c00204 	movi	r19,8
   239dc:	0021883a 	mov	r16,zero
   239e0:	0025883a 	mov	r18,zero
   239e4:	02400084 	movi	r9,2
   239e8:	003fca06 	br	23914 <__alt_data_end+0xfffe3914>
   239ec:	8023883a 	mov	r17,r16
   239f0:	9011883a 	mov	r8,r18
   239f4:	e02f883a 	mov	r23,fp
   239f8:	480f883a 	mov	r7,r9
   239fc:	00800084 	movi	r2,2
   23a00:	3881311e 	bne	r7,r2,23ec8 <__divdf3+0x62c>
   23a04:	b827883a 	mov	r19,r23
   23a08:	98c0004c 	andi	r3,r19,1
   23a0c:	0081ffc4 	movi	r2,2047
   23a10:	000b883a 	mov	r5,zero
   23a14:	0025883a 	mov	r18,zero
   23a18:	1004953a 	slli	r2,r2,20
   23a1c:	18c03fcc 	andi	r3,r3,255
   23a20:	04400434 	movhi	r17,16
   23a24:	8c7fffc4 	addi	r17,r17,-1
   23a28:	180697fa 	slli	r3,r3,31
   23a2c:	2c4a703a 	and	r5,r5,r17
   23a30:	288ab03a 	or	r5,r5,r2
   23a34:	28c6b03a 	or	r3,r5,r3
   23a38:	9005883a 	mov	r2,r18
   23a3c:	dfc00d17 	ldw	ra,52(sp)
   23a40:	df000c17 	ldw	fp,48(sp)
   23a44:	ddc00b17 	ldw	r23,44(sp)
   23a48:	dd800a17 	ldw	r22,40(sp)
   23a4c:	dd400917 	ldw	r21,36(sp)
   23a50:	dd000817 	ldw	r20,32(sp)
   23a54:	dcc00717 	ldw	r19,28(sp)
   23a58:	dc800617 	ldw	r18,24(sp)
   23a5c:	dc400517 	ldw	r17,20(sp)
   23a60:	dc000417 	ldw	r16,16(sp)
   23a64:	dec00e04 	addi	sp,sp,56
   23a68:	f800283a 	ret
   23a6c:	2404b03a 	or	r2,r4,r16
   23a70:	2027883a 	mov	r19,r4
   23a74:	10003926 	beq	r2,zero,23b5c <__divdf3+0x2c0>
   23a78:	80012e26 	beq	r16,zero,23f34 <__divdf3+0x698>
   23a7c:	8009883a 	mov	r4,r16
   23a80:	d9800315 	stw	r6,12(sp)
   23a84:	d9c00215 	stw	r7,8(sp)
   23a88:	0024a200 	call	24a20 <__clzsi2>
   23a8c:	d9800317 	ldw	r6,12(sp)
   23a90:	d9c00217 	ldw	r7,8(sp)
   23a94:	113ffd44 	addi	r4,r2,-11
   23a98:	00c00704 	movi	r3,28
   23a9c:	19012116 	blt	r3,r4,23f24 <__divdf3+0x688>
   23aa0:	00c00744 	movi	r3,29
   23aa4:	147ffe04 	addi	r17,r2,-8
   23aa8:	1907c83a 	sub	r3,r3,r4
   23aac:	8460983a 	sll	r16,r16,r17
   23ab0:	98c6d83a 	srl	r3,r19,r3
   23ab4:	9c64983a 	sll	r18,r19,r17
   23ab8:	1c20b03a 	or	r16,r3,r16
   23abc:	1080fcc4 	addi	r2,r2,1011
   23ac0:	00abc83a 	sub	r21,zero,r2
   23ac4:	0027883a 	mov	r19,zero
   23ac8:	0013883a 	mov	r9,zero
   23acc:	003f9106 	br	23914 <__alt_data_end+0xfffe3914>
   23ad0:	3446b03a 	or	r3,r6,r17
   23ad4:	18001f1e 	bne	r3,zero,23b54 <__divdf3+0x2b8>
   23ad8:	0023883a 	mov	r17,zero
   23adc:	0011883a 	mov	r8,zero
   23ae0:	01c00084 	movi	r7,2
   23ae4:	003f9d06 	br	2395c <__alt_data_end+0xfffe395c>
   23ae8:	3446b03a 	or	r3,r6,r17
   23aec:	18001526 	beq	r3,zero,23b44 <__divdf3+0x2a8>
   23af0:	88011b26 	beq	r17,zero,23f60 <__divdf3+0x6c4>
   23af4:	8809883a 	mov	r4,r17
   23af8:	d9800315 	stw	r6,12(sp)
   23afc:	da400115 	stw	r9,4(sp)
   23b00:	0024a200 	call	24a20 <__clzsi2>
   23b04:	d9800317 	ldw	r6,12(sp)
   23b08:	da400117 	ldw	r9,4(sp)
   23b0c:	113ffd44 	addi	r4,r2,-11
   23b10:	00c00704 	movi	r3,28
   23b14:	19010e16 	blt	r3,r4,23f50 <__divdf3+0x6b4>
   23b18:	00c00744 	movi	r3,29
   23b1c:	123ffe04 	addi	r8,r2,-8
   23b20:	1907c83a 	sub	r3,r3,r4
   23b24:	8a22983a 	sll	r17,r17,r8
   23b28:	30c6d83a 	srl	r3,r6,r3
   23b2c:	3210983a 	sll	r8,r6,r8
   23b30:	1c62b03a 	or	r17,r3,r17
   23b34:	1080fcc4 	addi	r2,r2,1011
   23b38:	0085c83a 	sub	r2,zero,r2
   23b3c:	000f883a 	mov	r7,zero
   23b40:	003f8606 	br	2395c <__alt_data_end+0xfffe395c>
   23b44:	0023883a 	mov	r17,zero
   23b48:	0011883a 	mov	r8,zero
   23b4c:	01c00044 	movi	r7,1
   23b50:	003f8206 	br	2395c <__alt_data_end+0xfffe395c>
   23b54:	01c000c4 	movi	r7,3
   23b58:	003f8006 	br	2395c <__alt_data_end+0xfffe395c>
   23b5c:	04c00104 	movi	r19,4
   23b60:	0021883a 	mov	r16,zero
   23b64:	0025883a 	mov	r18,zero
   23b68:	02400044 	movi	r9,1
   23b6c:	003f6906 	br	23914 <__alt_data_end+0xfffe3914>
   23b70:	04c00304 	movi	r19,12
   23b74:	024000c4 	movi	r9,3
   23b78:	003f6606 	br	23914 <__alt_data_end+0xfffe3914>
   23b7c:	01400434 	movhi	r5,16
   23b80:	0007883a 	mov	r3,zero
   23b84:	297fffc4 	addi	r5,r5,-1
   23b88:	04bfffc4 	movi	r18,-1
   23b8c:	0081ffc4 	movi	r2,2047
   23b90:	003fa106 	br	23a18 <__alt_data_end+0xfffe3a18>
   23b94:	00c00044 	movi	r3,1
   23b98:	1887c83a 	sub	r3,r3,r2
   23b9c:	01000e04 	movi	r4,56
   23ba0:	20c1210e 	bge	r4,r3,24028 <__divdf3+0x78c>
   23ba4:	98c0004c 	andi	r3,r19,1
   23ba8:	0005883a 	mov	r2,zero
   23bac:	000b883a 	mov	r5,zero
   23bb0:	0025883a 	mov	r18,zero
   23bb4:	003f9806 	br	23a18 <__alt_data_end+0xfffe3a18>
   23bb8:	8c00fd36 	bltu	r17,r16,23fb0 <__divdf3+0x714>
   23bbc:	8440fb26 	beq	r16,r17,23fac <__divdf3+0x710>
   23bc0:	8007883a 	mov	r3,r16
   23bc4:	ad7fffc4 	addi	r21,r21,-1
   23bc8:	0021883a 	mov	r16,zero
   23bcc:	4004d63a 	srli	r2,r8,24
   23bd0:	8822923a 	slli	r17,r17,8
   23bd4:	1809883a 	mov	r4,r3
   23bd8:	402c923a 	slli	r22,r8,8
   23bdc:	88b8b03a 	or	fp,r17,r2
   23be0:	e028d43a 	srli	r20,fp,16
   23be4:	d8c00015 	stw	r3,0(sp)
   23be8:	e5ffffcc 	andi	r23,fp,65535
   23bec:	a00b883a 	mov	r5,r20
   23bf0:	0022f340 	call	22f34 <__udivsi3>
   23bf4:	d8c00017 	ldw	r3,0(sp)
   23bf8:	a00b883a 	mov	r5,r20
   23bfc:	d8800315 	stw	r2,12(sp)
   23c00:	1809883a 	mov	r4,r3
   23c04:	0022f980 	call	22f98 <__umodsi3>
   23c08:	d9800317 	ldw	r6,12(sp)
   23c0c:	1006943a 	slli	r3,r2,16
   23c10:	9004d43a 	srli	r2,r18,16
   23c14:	b9a3383a 	mul	r17,r23,r6
   23c18:	10c4b03a 	or	r2,r2,r3
   23c1c:	1440062e 	bgeu	r2,r17,23c38 <__divdf3+0x39c>
   23c20:	1705883a 	add	r2,r2,fp
   23c24:	30ffffc4 	addi	r3,r6,-1
   23c28:	1700ee36 	bltu	r2,fp,23fe4 <__divdf3+0x748>
   23c2c:	1440ed2e 	bgeu	r2,r17,23fe4 <__divdf3+0x748>
   23c30:	31bfff84 	addi	r6,r6,-2
   23c34:	1705883a 	add	r2,r2,fp
   23c38:	1463c83a 	sub	r17,r2,r17
   23c3c:	a00b883a 	mov	r5,r20
   23c40:	8809883a 	mov	r4,r17
   23c44:	d9800315 	stw	r6,12(sp)
   23c48:	0022f340 	call	22f34 <__udivsi3>
   23c4c:	a00b883a 	mov	r5,r20
   23c50:	8809883a 	mov	r4,r17
   23c54:	d8800215 	stw	r2,8(sp)
   23c58:	0022f980 	call	22f98 <__umodsi3>
   23c5c:	d9c00217 	ldw	r7,8(sp)
   23c60:	1004943a 	slli	r2,r2,16
   23c64:	94bfffcc 	andi	r18,r18,65535
   23c68:	b9d1383a 	mul	r8,r23,r7
   23c6c:	90a4b03a 	or	r18,r18,r2
   23c70:	d9800317 	ldw	r6,12(sp)
   23c74:	9200062e 	bgeu	r18,r8,23c90 <__divdf3+0x3f4>
   23c78:	9725883a 	add	r18,r18,fp
   23c7c:	38bfffc4 	addi	r2,r7,-1
   23c80:	9700d636 	bltu	r18,fp,23fdc <__divdf3+0x740>
   23c84:	9200d52e 	bgeu	r18,r8,23fdc <__divdf3+0x740>
   23c88:	39ffff84 	addi	r7,r7,-2
   23c8c:	9725883a 	add	r18,r18,fp
   23c90:	3004943a 	slli	r2,r6,16
   23c94:	b012d43a 	srli	r9,r22,16
   23c98:	b1bfffcc 	andi	r6,r22,65535
   23c9c:	11e2b03a 	or	r17,r2,r7
   23ca0:	8806d43a 	srli	r3,r17,16
   23ca4:	893fffcc 	andi	r4,r17,65535
   23ca8:	218b383a 	mul	r5,r4,r6
   23cac:	30c5383a 	mul	r2,r6,r3
   23cb0:	2249383a 	mul	r4,r4,r9
   23cb4:	280ed43a 	srli	r7,r5,16
   23cb8:	9225c83a 	sub	r18,r18,r8
   23cbc:	2089883a 	add	r4,r4,r2
   23cc0:	3909883a 	add	r4,r7,r4
   23cc4:	1a47383a 	mul	r3,r3,r9
   23cc8:	2080022e 	bgeu	r4,r2,23cd4 <__divdf3+0x438>
   23ccc:	00800074 	movhi	r2,1
   23cd0:	1887883a 	add	r3,r3,r2
   23cd4:	2004d43a 	srli	r2,r4,16
   23cd8:	2008943a 	slli	r4,r4,16
   23cdc:	297fffcc 	andi	r5,r5,65535
   23ce0:	10c7883a 	add	r3,r2,r3
   23ce4:	2149883a 	add	r4,r4,r5
   23ce8:	90c0a536 	bltu	r18,r3,23f80 <__divdf3+0x6e4>
   23cec:	90c0bf26 	beq	r18,r3,23fec <__divdf3+0x750>
   23cf0:	90c7c83a 	sub	r3,r18,r3
   23cf4:	810fc83a 	sub	r7,r16,r4
   23cf8:	81e5803a 	cmpltu	r18,r16,r7
   23cfc:	1ca5c83a 	sub	r18,r3,r18
   23d00:	e480c126 	beq	fp,r18,24008 <__divdf3+0x76c>
   23d04:	a00b883a 	mov	r5,r20
   23d08:	9009883a 	mov	r4,r18
   23d0c:	d9800315 	stw	r6,12(sp)
   23d10:	d9c00215 	stw	r7,8(sp)
   23d14:	da400115 	stw	r9,4(sp)
   23d18:	0022f340 	call	22f34 <__udivsi3>
   23d1c:	a00b883a 	mov	r5,r20
   23d20:	9009883a 	mov	r4,r18
   23d24:	d8800015 	stw	r2,0(sp)
   23d28:	0022f980 	call	22f98 <__umodsi3>
   23d2c:	d9c00217 	ldw	r7,8(sp)
   23d30:	da000017 	ldw	r8,0(sp)
   23d34:	1006943a 	slli	r3,r2,16
   23d38:	3804d43a 	srli	r2,r7,16
   23d3c:	ba21383a 	mul	r16,r23,r8
   23d40:	d9800317 	ldw	r6,12(sp)
   23d44:	10c4b03a 	or	r2,r2,r3
   23d48:	da400117 	ldw	r9,4(sp)
   23d4c:	1400062e 	bgeu	r2,r16,23d68 <__divdf3+0x4cc>
   23d50:	1705883a 	add	r2,r2,fp
   23d54:	40ffffc4 	addi	r3,r8,-1
   23d58:	1700ad36 	bltu	r2,fp,24010 <__divdf3+0x774>
   23d5c:	1400ac2e 	bgeu	r2,r16,24010 <__divdf3+0x774>
   23d60:	423fff84 	addi	r8,r8,-2
   23d64:	1705883a 	add	r2,r2,fp
   23d68:	1421c83a 	sub	r16,r2,r16
   23d6c:	a00b883a 	mov	r5,r20
   23d70:	8009883a 	mov	r4,r16
   23d74:	d9800315 	stw	r6,12(sp)
   23d78:	d9c00215 	stw	r7,8(sp)
   23d7c:	da000015 	stw	r8,0(sp)
   23d80:	da400115 	stw	r9,4(sp)
   23d84:	0022f340 	call	22f34 <__udivsi3>
   23d88:	8009883a 	mov	r4,r16
   23d8c:	a00b883a 	mov	r5,r20
   23d90:	1025883a 	mov	r18,r2
   23d94:	0022f980 	call	22f98 <__umodsi3>
   23d98:	d9c00217 	ldw	r7,8(sp)
   23d9c:	1004943a 	slli	r2,r2,16
   23da0:	bcaf383a 	mul	r23,r23,r18
   23da4:	393fffcc 	andi	r4,r7,65535
   23da8:	2088b03a 	or	r4,r4,r2
   23dac:	d9800317 	ldw	r6,12(sp)
   23db0:	da000017 	ldw	r8,0(sp)
   23db4:	da400117 	ldw	r9,4(sp)
   23db8:	25c0062e 	bgeu	r4,r23,23dd4 <__divdf3+0x538>
   23dbc:	2709883a 	add	r4,r4,fp
   23dc0:	90bfffc4 	addi	r2,r18,-1
   23dc4:	27009436 	bltu	r4,fp,24018 <__divdf3+0x77c>
   23dc8:	25c0932e 	bgeu	r4,r23,24018 <__divdf3+0x77c>
   23dcc:	94bfff84 	addi	r18,r18,-2
   23dd0:	2709883a 	add	r4,r4,fp
   23dd4:	4004943a 	slli	r2,r8,16
   23dd8:	25efc83a 	sub	r23,r4,r23
   23ddc:	1490b03a 	or	r8,r2,r18
   23de0:	4008d43a 	srli	r4,r8,16
   23de4:	40ffffcc 	andi	r3,r8,65535
   23de8:	30c5383a 	mul	r2,r6,r3
   23dec:	1a47383a 	mul	r3,r3,r9
   23df0:	310d383a 	mul	r6,r6,r4
   23df4:	100ad43a 	srli	r5,r2,16
   23df8:	4913383a 	mul	r9,r9,r4
   23dfc:	1987883a 	add	r3,r3,r6
   23e00:	28c7883a 	add	r3,r5,r3
   23e04:	1980022e 	bgeu	r3,r6,23e10 <__divdf3+0x574>
   23e08:	01000074 	movhi	r4,1
   23e0c:	4913883a 	add	r9,r9,r4
   23e10:	1808d43a 	srli	r4,r3,16
   23e14:	1806943a 	slli	r3,r3,16
   23e18:	10bfffcc 	andi	r2,r2,65535
   23e1c:	2253883a 	add	r9,r4,r9
   23e20:	1887883a 	add	r3,r3,r2
   23e24:	ba403836 	bltu	r23,r9,23f08 <__divdf3+0x66c>
   23e28:	ba403626 	beq	r23,r9,23f04 <__divdf3+0x668>
   23e2c:	42000054 	ori	r8,r8,1
   23e30:	a880ffc4 	addi	r2,r21,1023
   23e34:	00bf570e 	bge	zero,r2,23b94 <__alt_data_end+0xfffe3b94>
   23e38:	40c001cc 	andi	r3,r8,7
   23e3c:	18000726 	beq	r3,zero,23e5c <__divdf3+0x5c0>
   23e40:	40c003cc 	andi	r3,r8,15
   23e44:	01000104 	movi	r4,4
   23e48:	19000426 	beq	r3,r4,23e5c <__divdf3+0x5c0>
   23e4c:	4107883a 	add	r3,r8,r4
   23e50:	1a11803a 	cmpltu	r8,r3,r8
   23e54:	8a23883a 	add	r17,r17,r8
   23e58:	1811883a 	mov	r8,r3
   23e5c:	88c0402c 	andhi	r3,r17,256
   23e60:	18000426 	beq	r3,zero,23e74 <__divdf3+0x5d8>
   23e64:	00ffc034 	movhi	r3,65280
   23e68:	18ffffc4 	addi	r3,r3,-1
   23e6c:	a8810004 	addi	r2,r21,1024
   23e70:	88e2703a 	and	r17,r17,r3
   23e74:	00c1ff84 	movi	r3,2046
   23e78:	18bee316 	blt	r3,r2,23a08 <__alt_data_end+0xfffe3a08>
   23e7c:	8824977a 	slli	r18,r17,29
   23e80:	4010d0fa 	srli	r8,r8,3
   23e84:	8822927a 	slli	r17,r17,9
   23e88:	1081ffcc 	andi	r2,r2,2047
   23e8c:	9224b03a 	or	r18,r18,r8
   23e90:	880ad33a 	srli	r5,r17,12
   23e94:	98c0004c 	andi	r3,r19,1
   23e98:	003edf06 	br	23a18 <__alt_data_end+0xfffe3a18>
   23e9c:	8080022c 	andhi	r2,r16,8
   23ea0:	10001226 	beq	r2,zero,23eec <__divdf3+0x650>
   23ea4:	8880022c 	andhi	r2,r17,8
   23ea8:	1000101e 	bne	r2,zero,23eec <__divdf3+0x650>
   23eac:	00800434 	movhi	r2,16
   23eb0:	89400234 	orhi	r5,r17,8
   23eb4:	10bfffc4 	addi	r2,r2,-1
   23eb8:	b007883a 	mov	r3,r22
   23ebc:	288a703a 	and	r5,r5,r2
   23ec0:	4025883a 	mov	r18,r8
   23ec4:	003f3106 	br	23b8c <__alt_data_end+0xfffe3b8c>
   23ec8:	008000c4 	movi	r2,3
   23ecc:	3880a626 	beq	r7,r2,24168 <__divdf3+0x8cc>
   23ed0:	00800044 	movi	r2,1
   23ed4:	3880521e 	bne	r7,r2,24020 <__divdf3+0x784>
   23ed8:	b807883a 	mov	r3,r23
   23edc:	0005883a 	mov	r2,zero
   23ee0:	000b883a 	mov	r5,zero
   23ee4:	0025883a 	mov	r18,zero
   23ee8:	003ecb06 	br	23a18 <__alt_data_end+0xfffe3a18>
   23eec:	00800434 	movhi	r2,16
   23ef0:	81400234 	orhi	r5,r16,8
   23ef4:	10bfffc4 	addi	r2,r2,-1
   23ef8:	a007883a 	mov	r3,r20
   23efc:	288a703a 	and	r5,r5,r2
   23f00:	003f2206 	br	23b8c <__alt_data_end+0xfffe3b8c>
   23f04:	183fca26 	beq	r3,zero,23e30 <__alt_data_end+0xfffe3e30>
   23f08:	e5ef883a 	add	r23,fp,r23
   23f0c:	40bfffc4 	addi	r2,r8,-1
   23f10:	bf00392e 	bgeu	r23,fp,23ff8 <__divdf3+0x75c>
   23f14:	1011883a 	mov	r8,r2
   23f18:	ba7fc41e 	bne	r23,r9,23e2c <__alt_data_end+0xfffe3e2c>
   23f1c:	b0ffc31e 	bne	r22,r3,23e2c <__alt_data_end+0xfffe3e2c>
   23f20:	003fc306 	br	23e30 <__alt_data_end+0xfffe3e30>
   23f24:	143ff604 	addi	r16,r2,-40
   23f28:	9c20983a 	sll	r16,r19,r16
   23f2c:	0025883a 	mov	r18,zero
   23f30:	003ee206 	br	23abc <__alt_data_end+0xfffe3abc>
   23f34:	d9800315 	stw	r6,12(sp)
   23f38:	d9c00215 	stw	r7,8(sp)
   23f3c:	0024a200 	call	24a20 <__clzsi2>
   23f40:	10800804 	addi	r2,r2,32
   23f44:	d9c00217 	ldw	r7,8(sp)
   23f48:	d9800317 	ldw	r6,12(sp)
   23f4c:	003ed106 	br	23a94 <__alt_data_end+0xfffe3a94>
   23f50:	147ff604 	addi	r17,r2,-40
   23f54:	3462983a 	sll	r17,r6,r17
   23f58:	0011883a 	mov	r8,zero
   23f5c:	003ef506 	br	23b34 <__alt_data_end+0xfffe3b34>
   23f60:	3009883a 	mov	r4,r6
   23f64:	d9800315 	stw	r6,12(sp)
   23f68:	da400115 	stw	r9,4(sp)
   23f6c:	0024a200 	call	24a20 <__clzsi2>
   23f70:	10800804 	addi	r2,r2,32
   23f74:	da400117 	ldw	r9,4(sp)
   23f78:	d9800317 	ldw	r6,12(sp)
   23f7c:	003ee306 	br	23b0c <__alt_data_end+0xfffe3b0c>
   23f80:	85a1883a 	add	r16,r16,r22
   23f84:	8585803a 	cmpltu	r2,r16,r22
   23f88:	1705883a 	add	r2,r2,fp
   23f8c:	14a5883a 	add	r18,r2,r18
   23f90:	88bfffc4 	addi	r2,r17,-1
   23f94:	e4800c2e 	bgeu	fp,r18,23fc8 <__divdf3+0x72c>
   23f98:	90c03e36 	bltu	r18,r3,24094 <__divdf3+0x7f8>
   23f9c:	1c806926 	beq	r3,r18,24144 <__divdf3+0x8a8>
   23fa0:	90c7c83a 	sub	r3,r18,r3
   23fa4:	1023883a 	mov	r17,r2
   23fa8:	003f5206 	br	23cf4 <__alt_data_end+0xfffe3cf4>
   23fac:	923f0436 	bltu	r18,r8,23bc0 <__alt_data_end+0xfffe3bc0>
   23fb0:	800897fa 	slli	r4,r16,31
   23fb4:	9004d07a 	srli	r2,r18,1
   23fb8:	8006d07a 	srli	r3,r16,1
   23fbc:	902097fa 	slli	r16,r18,31
   23fc0:	20a4b03a 	or	r18,r4,r2
   23fc4:	003f0106 	br	23bcc <__alt_data_end+0xfffe3bcc>
   23fc8:	e4bff51e 	bne	fp,r18,23fa0 <__alt_data_end+0xfffe3fa0>
   23fcc:	85bff22e 	bgeu	r16,r22,23f98 <__alt_data_end+0xfffe3f98>
   23fd0:	e0c7c83a 	sub	r3,fp,r3
   23fd4:	1023883a 	mov	r17,r2
   23fd8:	003f4606 	br	23cf4 <__alt_data_end+0xfffe3cf4>
   23fdc:	100f883a 	mov	r7,r2
   23fe0:	003f2b06 	br	23c90 <__alt_data_end+0xfffe3c90>
   23fe4:	180d883a 	mov	r6,r3
   23fe8:	003f1306 	br	23c38 <__alt_data_end+0xfffe3c38>
   23fec:	813fe436 	bltu	r16,r4,23f80 <__alt_data_end+0xfffe3f80>
   23ff0:	0007883a 	mov	r3,zero
   23ff4:	003f3f06 	br	23cf4 <__alt_data_end+0xfffe3cf4>
   23ff8:	ba402c36 	bltu	r23,r9,240ac <__divdf3+0x810>
   23ffc:	4dc05426 	beq	r9,r23,24150 <__divdf3+0x8b4>
   24000:	1011883a 	mov	r8,r2
   24004:	003f8906 	br	23e2c <__alt_data_end+0xfffe3e2c>
   24008:	023fffc4 	movi	r8,-1
   2400c:	003f8806 	br	23e30 <__alt_data_end+0xfffe3e30>
   24010:	1811883a 	mov	r8,r3
   24014:	003f5406 	br	23d68 <__alt_data_end+0xfffe3d68>
   24018:	1025883a 	mov	r18,r2
   2401c:	003f6d06 	br	23dd4 <__alt_data_end+0xfffe3dd4>
   24020:	b827883a 	mov	r19,r23
   24024:	003f8206 	br	23e30 <__alt_data_end+0xfffe3e30>
   24028:	010007c4 	movi	r4,31
   2402c:	20c02616 	blt	r4,r3,240c8 <__divdf3+0x82c>
   24030:	00800804 	movi	r2,32
   24034:	10c5c83a 	sub	r2,r2,r3
   24038:	888a983a 	sll	r5,r17,r2
   2403c:	40c8d83a 	srl	r4,r8,r3
   24040:	4084983a 	sll	r2,r8,r2
   24044:	88e2d83a 	srl	r17,r17,r3
   24048:	2906b03a 	or	r3,r5,r4
   2404c:	1004c03a 	cmpne	r2,r2,zero
   24050:	1886b03a 	or	r3,r3,r2
   24054:	188001cc 	andi	r2,r3,7
   24058:	10000726 	beq	r2,zero,24078 <__divdf3+0x7dc>
   2405c:	188003cc 	andi	r2,r3,15
   24060:	01000104 	movi	r4,4
   24064:	11000426 	beq	r2,r4,24078 <__divdf3+0x7dc>
   24068:	1805883a 	mov	r2,r3
   2406c:	10c00104 	addi	r3,r2,4
   24070:	1885803a 	cmpltu	r2,r3,r2
   24074:	88a3883a 	add	r17,r17,r2
   24078:	8880202c 	andhi	r2,r17,128
   2407c:	10002726 	beq	r2,zero,2411c <__divdf3+0x880>
   24080:	98c0004c 	andi	r3,r19,1
   24084:	00800044 	movi	r2,1
   24088:	000b883a 	mov	r5,zero
   2408c:	0025883a 	mov	r18,zero
   24090:	003e6106 	br	23a18 <__alt_data_end+0xfffe3a18>
   24094:	85a1883a 	add	r16,r16,r22
   24098:	8585803a 	cmpltu	r2,r16,r22
   2409c:	1705883a 	add	r2,r2,fp
   240a0:	14a5883a 	add	r18,r2,r18
   240a4:	8c7fff84 	addi	r17,r17,-2
   240a8:	003f1106 	br	23cf0 <__alt_data_end+0xfffe3cf0>
   240ac:	b589883a 	add	r4,r22,r22
   240b0:	25ad803a 	cmpltu	r22,r4,r22
   240b4:	b739883a 	add	fp,r22,fp
   240b8:	40bfff84 	addi	r2,r8,-2
   240bc:	bf2f883a 	add	r23,r23,fp
   240c0:	202d883a 	mov	r22,r4
   240c4:	003f9306 	br	23f14 <__alt_data_end+0xfffe3f14>
   240c8:	013ff844 	movi	r4,-31
   240cc:	2085c83a 	sub	r2,r4,r2
   240d0:	8888d83a 	srl	r4,r17,r2
   240d4:	00800804 	movi	r2,32
   240d8:	18802126 	beq	r3,r2,24160 <__divdf3+0x8c4>
   240dc:	00801004 	movi	r2,64
   240e0:	10c5c83a 	sub	r2,r2,r3
   240e4:	8884983a 	sll	r2,r17,r2
   240e8:	1204b03a 	or	r2,r2,r8
   240ec:	1004c03a 	cmpne	r2,r2,zero
   240f0:	2084b03a 	or	r2,r4,r2
   240f4:	144001cc 	andi	r17,r2,7
   240f8:	88000d1e 	bne	r17,zero,24130 <__divdf3+0x894>
   240fc:	000b883a 	mov	r5,zero
   24100:	1024d0fa 	srli	r18,r2,3
   24104:	98c0004c 	andi	r3,r19,1
   24108:	0005883a 	mov	r2,zero
   2410c:	9464b03a 	or	r18,r18,r17
   24110:	003e4106 	br	23a18 <__alt_data_end+0xfffe3a18>
   24114:	1007883a 	mov	r3,r2
   24118:	0023883a 	mov	r17,zero
   2411c:	880a927a 	slli	r5,r17,9
   24120:	1805883a 	mov	r2,r3
   24124:	8822977a 	slli	r17,r17,29
   24128:	280ad33a 	srli	r5,r5,12
   2412c:	003ff406 	br	24100 <__alt_data_end+0xfffe4100>
   24130:	10c003cc 	andi	r3,r2,15
   24134:	01000104 	movi	r4,4
   24138:	193ff626 	beq	r3,r4,24114 <__alt_data_end+0xfffe4114>
   2413c:	0023883a 	mov	r17,zero
   24140:	003fca06 	br	2406c <__alt_data_end+0xfffe406c>
   24144:	813fd336 	bltu	r16,r4,24094 <__alt_data_end+0xfffe4094>
   24148:	1023883a 	mov	r17,r2
   2414c:	003fa806 	br	23ff0 <__alt_data_end+0xfffe3ff0>
   24150:	b0ffd636 	bltu	r22,r3,240ac <__alt_data_end+0xfffe40ac>
   24154:	1011883a 	mov	r8,r2
   24158:	b0ff341e 	bne	r22,r3,23e2c <__alt_data_end+0xfffe3e2c>
   2415c:	003f3406 	br	23e30 <__alt_data_end+0xfffe3e30>
   24160:	0005883a 	mov	r2,zero
   24164:	003fe006 	br	240e8 <__alt_data_end+0xfffe40e8>
   24168:	00800434 	movhi	r2,16
   2416c:	89400234 	orhi	r5,r17,8
   24170:	10bfffc4 	addi	r2,r2,-1
   24174:	b807883a 	mov	r3,r23
   24178:	288a703a 	and	r5,r5,r2
   2417c:	4025883a 	mov	r18,r8
   24180:	003e8206 	br	23b8c <__alt_data_end+0xfffe3b8c>

00024184 <__muldf3>:
   24184:	defff304 	addi	sp,sp,-52
   24188:	2804d53a 	srli	r2,r5,20
   2418c:	dd800915 	stw	r22,36(sp)
   24190:	282cd7fa 	srli	r22,r5,31
   24194:	dc000315 	stw	r16,12(sp)
   24198:	04000434 	movhi	r16,16
   2419c:	dd400815 	stw	r21,32(sp)
   241a0:	dc800515 	stw	r18,20(sp)
   241a4:	843fffc4 	addi	r16,r16,-1
   241a8:	dfc00c15 	stw	ra,48(sp)
   241ac:	df000b15 	stw	fp,44(sp)
   241b0:	ddc00a15 	stw	r23,40(sp)
   241b4:	dd000715 	stw	r20,28(sp)
   241b8:	dcc00615 	stw	r19,24(sp)
   241bc:	dc400415 	stw	r17,16(sp)
   241c0:	1481ffcc 	andi	r18,r2,2047
   241c4:	2c20703a 	and	r16,r5,r16
   241c8:	b02b883a 	mov	r21,r22
   241cc:	b2403fcc 	andi	r9,r22,255
   241d0:	90006026 	beq	r18,zero,24354 <__muldf3+0x1d0>
   241d4:	0081ffc4 	movi	r2,2047
   241d8:	2029883a 	mov	r20,r4
   241dc:	90803626 	beq	r18,r2,242b8 <__muldf3+0x134>
   241e0:	80800434 	orhi	r2,r16,16
   241e4:	100490fa 	slli	r2,r2,3
   241e8:	2020d77a 	srli	r16,r4,29
   241ec:	202890fa 	slli	r20,r4,3
   241f0:	94bf0044 	addi	r18,r18,-1023
   241f4:	80a0b03a 	or	r16,r16,r2
   241f8:	0027883a 	mov	r19,zero
   241fc:	0039883a 	mov	fp,zero
   24200:	3804d53a 	srli	r2,r7,20
   24204:	382ed7fa 	srli	r23,r7,31
   24208:	04400434 	movhi	r17,16
   2420c:	8c7fffc4 	addi	r17,r17,-1
   24210:	1081ffcc 	andi	r2,r2,2047
   24214:	3011883a 	mov	r8,r6
   24218:	3c62703a 	and	r17,r7,r17
   2421c:	ba803fcc 	andi	r10,r23,255
   24220:	10006d26 	beq	r2,zero,243d8 <__muldf3+0x254>
   24224:	00c1ffc4 	movi	r3,2047
   24228:	10c06526 	beq	r2,r3,243c0 <__muldf3+0x23c>
   2422c:	88c00434 	orhi	r3,r17,16
   24230:	180690fa 	slli	r3,r3,3
   24234:	3022d77a 	srli	r17,r6,29
   24238:	301090fa 	slli	r8,r6,3
   2423c:	10bf0044 	addi	r2,r2,-1023
   24240:	88e2b03a 	or	r17,r17,r3
   24244:	000b883a 	mov	r5,zero
   24248:	9085883a 	add	r2,r18,r2
   2424c:	2cc8b03a 	or	r4,r5,r19
   24250:	00c003c4 	movi	r3,15
   24254:	bdacf03a 	xor	r22,r23,r22
   24258:	12c00044 	addi	r11,r2,1
   2425c:	19009936 	bltu	r3,r4,244c4 <__muldf3+0x340>
   24260:	200890ba 	slli	r4,r4,2
   24264:	00c000b4 	movhi	r3,2
   24268:	18d09e04 	addi	r3,r3,17016
   2426c:	20c9883a 	add	r4,r4,r3
   24270:	20c00017 	ldw	r3,0(r4)
   24274:	1800683a 	jmp	r3
   24278:	000244c4 	movi	zero,2323
   2427c:	000242d8 	cmpnei	zero,zero,2315
   24280:	000242d8 	cmpnei	zero,zero,2315
   24284:	000242d4 	movui	zero,2315
   24288:	000244a0 	cmpeqi	zero,zero,2322
   2428c:	000244a0 	cmpeqi	zero,zero,2322
   24290:	00024488 	cmpgei	zero,zero,2322
   24294:	000242d4 	movui	zero,2315
   24298:	000244a0 	cmpeqi	zero,zero,2322
   2429c:	00024488 	cmpgei	zero,zero,2322
   242a0:	000244a0 	cmpeqi	zero,zero,2322
   242a4:	000242d4 	movui	zero,2315
   242a8:	000244b0 	cmpltui	zero,zero,2322
   242ac:	000244b0 	cmpltui	zero,zero,2322
   242b0:	000244b0 	cmpltui	zero,zero,2322
   242b4:	000246cc 	andi	zero,zero,2331
   242b8:	2404b03a 	or	r2,r4,r16
   242bc:	10006f1e 	bne	r2,zero,2447c <__muldf3+0x2f8>
   242c0:	04c00204 	movi	r19,8
   242c4:	0021883a 	mov	r16,zero
   242c8:	0029883a 	mov	r20,zero
   242cc:	07000084 	movi	fp,2
   242d0:	003fcb06 	br	24200 <__alt_data_end+0xfffe4200>
   242d4:	502d883a 	mov	r22,r10
   242d8:	00800084 	movi	r2,2
   242dc:	28805726 	beq	r5,r2,2443c <__muldf3+0x2b8>
   242e0:	008000c4 	movi	r2,3
   242e4:	28816626 	beq	r5,r2,24880 <__muldf3+0x6fc>
   242e8:	00800044 	movi	r2,1
   242ec:	2881411e 	bne	r5,r2,247f4 <__muldf3+0x670>
   242f0:	b02b883a 	mov	r21,r22
   242f4:	0005883a 	mov	r2,zero
   242f8:	000b883a 	mov	r5,zero
   242fc:	0029883a 	mov	r20,zero
   24300:	1004953a 	slli	r2,r2,20
   24304:	a8c03fcc 	andi	r3,r21,255
   24308:	04400434 	movhi	r17,16
   2430c:	8c7fffc4 	addi	r17,r17,-1
   24310:	180697fa 	slli	r3,r3,31
   24314:	2c4a703a 	and	r5,r5,r17
   24318:	288ab03a 	or	r5,r5,r2
   2431c:	28c6b03a 	or	r3,r5,r3
   24320:	a005883a 	mov	r2,r20
   24324:	dfc00c17 	ldw	ra,48(sp)
   24328:	df000b17 	ldw	fp,44(sp)
   2432c:	ddc00a17 	ldw	r23,40(sp)
   24330:	dd800917 	ldw	r22,36(sp)
   24334:	dd400817 	ldw	r21,32(sp)
   24338:	dd000717 	ldw	r20,28(sp)
   2433c:	dcc00617 	ldw	r19,24(sp)
   24340:	dc800517 	ldw	r18,20(sp)
   24344:	dc400417 	ldw	r17,16(sp)
   24348:	dc000317 	ldw	r16,12(sp)
   2434c:	dec00d04 	addi	sp,sp,52
   24350:	f800283a 	ret
   24354:	2404b03a 	or	r2,r4,r16
   24358:	2027883a 	mov	r19,r4
   2435c:	10004226 	beq	r2,zero,24468 <__muldf3+0x2e4>
   24360:	8000fc26 	beq	r16,zero,24754 <__muldf3+0x5d0>
   24364:	8009883a 	mov	r4,r16
   24368:	d9800215 	stw	r6,8(sp)
   2436c:	d9c00015 	stw	r7,0(sp)
   24370:	da400115 	stw	r9,4(sp)
   24374:	0024a200 	call	24a20 <__clzsi2>
   24378:	d9800217 	ldw	r6,8(sp)
   2437c:	d9c00017 	ldw	r7,0(sp)
   24380:	da400117 	ldw	r9,4(sp)
   24384:	113ffd44 	addi	r4,r2,-11
   24388:	00c00704 	movi	r3,28
   2438c:	1900ed16 	blt	r3,r4,24744 <__muldf3+0x5c0>
   24390:	00c00744 	movi	r3,29
   24394:	147ffe04 	addi	r17,r2,-8
   24398:	1907c83a 	sub	r3,r3,r4
   2439c:	8460983a 	sll	r16,r16,r17
   243a0:	98c6d83a 	srl	r3,r19,r3
   243a4:	9c68983a 	sll	r20,r19,r17
   243a8:	1c20b03a 	or	r16,r3,r16
   243ac:	1080fcc4 	addi	r2,r2,1011
   243b0:	00a5c83a 	sub	r18,zero,r2
   243b4:	0027883a 	mov	r19,zero
   243b8:	0039883a 	mov	fp,zero
   243bc:	003f9006 	br	24200 <__alt_data_end+0xfffe4200>
   243c0:	3446b03a 	or	r3,r6,r17
   243c4:	1800261e 	bne	r3,zero,24460 <__muldf3+0x2dc>
   243c8:	0023883a 	mov	r17,zero
   243cc:	0011883a 	mov	r8,zero
   243d0:	01400084 	movi	r5,2
   243d4:	003f9c06 	br	24248 <__alt_data_end+0xfffe4248>
   243d8:	3446b03a 	or	r3,r6,r17
   243dc:	18001c26 	beq	r3,zero,24450 <__muldf3+0x2cc>
   243e0:	8800ce26 	beq	r17,zero,2471c <__muldf3+0x598>
   243e4:	8809883a 	mov	r4,r17
   243e8:	d9800215 	stw	r6,8(sp)
   243ec:	da400115 	stw	r9,4(sp)
   243f0:	da800015 	stw	r10,0(sp)
   243f4:	0024a200 	call	24a20 <__clzsi2>
   243f8:	d9800217 	ldw	r6,8(sp)
   243fc:	da400117 	ldw	r9,4(sp)
   24400:	da800017 	ldw	r10,0(sp)
   24404:	113ffd44 	addi	r4,r2,-11
   24408:	00c00704 	movi	r3,28
   2440c:	1900bf16 	blt	r3,r4,2470c <__muldf3+0x588>
   24410:	00c00744 	movi	r3,29
   24414:	123ffe04 	addi	r8,r2,-8
   24418:	1907c83a 	sub	r3,r3,r4
   2441c:	8a22983a 	sll	r17,r17,r8
   24420:	30c6d83a 	srl	r3,r6,r3
   24424:	3210983a 	sll	r8,r6,r8
   24428:	1c62b03a 	or	r17,r3,r17
   2442c:	1080fcc4 	addi	r2,r2,1011
   24430:	0085c83a 	sub	r2,zero,r2
   24434:	000b883a 	mov	r5,zero
   24438:	003f8306 	br	24248 <__alt_data_end+0xfffe4248>
   2443c:	b02b883a 	mov	r21,r22
   24440:	0081ffc4 	movi	r2,2047
   24444:	000b883a 	mov	r5,zero
   24448:	0029883a 	mov	r20,zero
   2444c:	003fac06 	br	24300 <__alt_data_end+0xfffe4300>
   24450:	0023883a 	mov	r17,zero
   24454:	0011883a 	mov	r8,zero
   24458:	01400044 	movi	r5,1
   2445c:	003f7a06 	br	24248 <__alt_data_end+0xfffe4248>
   24460:	014000c4 	movi	r5,3
   24464:	003f7806 	br	24248 <__alt_data_end+0xfffe4248>
   24468:	04c00104 	movi	r19,4
   2446c:	0021883a 	mov	r16,zero
   24470:	0029883a 	mov	r20,zero
   24474:	07000044 	movi	fp,1
   24478:	003f6106 	br	24200 <__alt_data_end+0xfffe4200>
   2447c:	04c00304 	movi	r19,12
   24480:	070000c4 	movi	fp,3
   24484:	003f5e06 	br	24200 <__alt_data_end+0xfffe4200>
   24488:	01400434 	movhi	r5,16
   2448c:	002b883a 	mov	r21,zero
   24490:	297fffc4 	addi	r5,r5,-1
   24494:	053fffc4 	movi	r20,-1
   24498:	0081ffc4 	movi	r2,2047
   2449c:	003f9806 	br	24300 <__alt_data_end+0xfffe4300>
   244a0:	8023883a 	mov	r17,r16
   244a4:	a011883a 	mov	r8,r20
   244a8:	e00b883a 	mov	r5,fp
   244ac:	003f8a06 	br	242d8 <__alt_data_end+0xfffe42d8>
   244b0:	8023883a 	mov	r17,r16
   244b4:	a011883a 	mov	r8,r20
   244b8:	482d883a 	mov	r22,r9
   244bc:	e00b883a 	mov	r5,fp
   244c0:	003f8506 	br	242d8 <__alt_data_end+0xfffe42d8>
   244c4:	a00ad43a 	srli	r5,r20,16
   244c8:	401ad43a 	srli	r13,r8,16
   244cc:	a53fffcc 	andi	r20,r20,65535
   244d0:	423fffcc 	andi	r8,r8,65535
   244d4:	4519383a 	mul	r12,r8,r20
   244d8:	4147383a 	mul	r3,r8,r5
   244dc:	6d09383a 	mul	r4,r13,r20
   244e0:	600cd43a 	srli	r6,r12,16
   244e4:	2b5d383a 	mul	r14,r5,r13
   244e8:	20c9883a 	add	r4,r4,r3
   244ec:	310d883a 	add	r6,r6,r4
   244f0:	30c0022e 	bgeu	r6,r3,244fc <__muldf3+0x378>
   244f4:	00c00074 	movhi	r3,1
   244f8:	70dd883a 	add	r14,r14,r3
   244fc:	8826d43a 	srli	r19,r17,16
   24500:	8bffffcc 	andi	r15,r17,65535
   24504:	7d23383a 	mul	r17,r15,r20
   24508:	7949383a 	mul	r4,r15,r5
   2450c:	9d29383a 	mul	r20,r19,r20
   24510:	8814d43a 	srli	r10,r17,16
   24514:	3012943a 	slli	r9,r6,16
   24518:	a129883a 	add	r20,r20,r4
   2451c:	633fffcc 	andi	r12,r12,65535
   24520:	5515883a 	add	r10,r10,r20
   24524:	3006d43a 	srli	r3,r6,16
   24528:	4b13883a 	add	r9,r9,r12
   2452c:	2ccb383a 	mul	r5,r5,r19
   24530:	5100022e 	bgeu	r10,r4,2453c <__muldf3+0x3b8>
   24534:	01000074 	movhi	r4,1
   24538:	290b883a 	add	r5,r5,r4
   2453c:	802ad43a 	srli	r21,r16,16
   24540:	843fffcc 	andi	r16,r16,65535
   24544:	440d383a 	mul	r6,r8,r16
   24548:	4565383a 	mul	r18,r8,r21
   2454c:	8349383a 	mul	r4,r16,r13
   24550:	500e943a 	slli	r7,r10,16
   24554:	3010d43a 	srli	r8,r6,16
   24558:	5028d43a 	srli	r20,r10,16
   2455c:	2489883a 	add	r4,r4,r18
   24560:	8abfffcc 	andi	r10,r17,65535
   24564:	3a95883a 	add	r10,r7,r10
   24568:	4119883a 	add	r12,r8,r4
   2456c:	a169883a 	add	r20,r20,r5
   24570:	1a87883a 	add	r3,r3,r10
   24574:	6d5b383a 	mul	r13,r13,r21
   24578:	6480022e 	bgeu	r12,r18,24584 <__muldf3+0x400>
   2457c:	01000074 	movhi	r4,1
   24580:	691b883a 	add	r13,r13,r4
   24584:	7c25383a 	mul	r18,r15,r16
   24588:	7d4b383a 	mul	r5,r15,r21
   2458c:	84cf383a 	mul	r7,r16,r19
   24590:	901ed43a 	srli	r15,r18,16
   24594:	6008d43a 	srli	r4,r12,16
   24598:	6010943a 	slli	r8,r12,16
   2459c:	394f883a 	add	r7,r7,r5
   245a0:	333fffcc 	andi	r12,r6,65535
   245a4:	79df883a 	add	r15,r15,r7
   245a8:	235b883a 	add	r13,r4,r13
   245ac:	9d63383a 	mul	r17,r19,r21
   245b0:	4309883a 	add	r4,r8,r12
   245b4:	7940022e 	bgeu	r15,r5,245c0 <__muldf3+0x43c>
   245b8:	01400074 	movhi	r5,1
   245bc:	8963883a 	add	r17,r17,r5
   245c0:	780a943a 	slli	r5,r15,16
   245c4:	91bfffcc 	andi	r6,r18,65535
   245c8:	70c7883a 	add	r3,r14,r3
   245cc:	298d883a 	add	r6,r5,r6
   245d0:	1a8f803a 	cmpltu	r7,r3,r10
   245d4:	350b883a 	add	r5,r6,r20
   245d8:	20c7883a 	add	r3,r4,r3
   245dc:	3955883a 	add	r10,r7,r5
   245e0:	1909803a 	cmpltu	r4,r3,r4
   245e4:	6a91883a 	add	r8,r13,r10
   245e8:	780cd43a 	srli	r6,r15,16
   245ec:	2219883a 	add	r12,r4,r8
   245f0:	2d0b803a 	cmpltu	r5,r5,r20
   245f4:	51cf803a 	cmpltu	r7,r10,r7
   245f8:	29ceb03a 	or	r7,r5,r7
   245fc:	4351803a 	cmpltu	r8,r8,r13
   24600:	610b803a 	cmpltu	r5,r12,r4
   24604:	4148b03a 	or	r4,r8,r5
   24608:	398f883a 	add	r7,r7,r6
   2460c:	3909883a 	add	r4,r7,r4
   24610:	1810927a 	slli	r8,r3,9
   24614:	2449883a 	add	r4,r4,r17
   24618:	2008927a 	slli	r4,r4,9
   2461c:	6022d5fa 	srli	r17,r12,23
   24620:	1806d5fa 	srli	r3,r3,23
   24624:	4252b03a 	or	r9,r8,r9
   24628:	600a927a 	slli	r5,r12,9
   2462c:	4810c03a 	cmpne	r8,r9,zero
   24630:	2462b03a 	or	r17,r4,r17
   24634:	40c6b03a 	or	r3,r8,r3
   24638:	8900402c 	andhi	r4,r17,256
   2463c:	1950b03a 	or	r8,r3,r5
   24640:	20000726 	beq	r4,zero,24660 <__muldf3+0x4dc>
   24644:	4006d07a 	srli	r3,r8,1
   24648:	880497fa 	slli	r2,r17,31
   2464c:	4200004c 	andi	r8,r8,1
   24650:	8822d07a 	srli	r17,r17,1
   24654:	1a10b03a 	or	r8,r3,r8
   24658:	1210b03a 	or	r8,r2,r8
   2465c:	5805883a 	mov	r2,r11
   24660:	1140ffc4 	addi	r5,r2,1023
   24664:	0140440e 	bge	zero,r5,24778 <__muldf3+0x5f4>
   24668:	40c001cc 	andi	r3,r8,7
   2466c:	18000726 	beq	r3,zero,2468c <__muldf3+0x508>
   24670:	40c003cc 	andi	r3,r8,15
   24674:	01000104 	movi	r4,4
   24678:	19000426 	beq	r3,r4,2468c <__muldf3+0x508>
   2467c:	4107883a 	add	r3,r8,r4
   24680:	1a11803a 	cmpltu	r8,r3,r8
   24684:	8a23883a 	add	r17,r17,r8
   24688:	1811883a 	mov	r8,r3
   2468c:	88c0402c 	andhi	r3,r17,256
   24690:	18000426 	beq	r3,zero,246a4 <__muldf3+0x520>
   24694:	11410004 	addi	r5,r2,1024
   24698:	00bfc034 	movhi	r2,65280
   2469c:	10bfffc4 	addi	r2,r2,-1
   246a0:	88a2703a 	and	r17,r17,r2
   246a4:	0081ff84 	movi	r2,2046
   246a8:	117f6416 	blt	r2,r5,2443c <__alt_data_end+0xfffe443c>
   246ac:	8828977a 	slli	r20,r17,29
   246b0:	4010d0fa 	srli	r8,r8,3
   246b4:	8822927a 	slli	r17,r17,9
   246b8:	2881ffcc 	andi	r2,r5,2047
   246bc:	a228b03a 	or	r20,r20,r8
   246c0:	880ad33a 	srli	r5,r17,12
   246c4:	b02b883a 	mov	r21,r22
   246c8:	003f0d06 	br	24300 <__alt_data_end+0xfffe4300>
   246cc:	8080022c 	andhi	r2,r16,8
   246d0:	10000926 	beq	r2,zero,246f8 <__muldf3+0x574>
   246d4:	8880022c 	andhi	r2,r17,8
   246d8:	1000071e 	bne	r2,zero,246f8 <__muldf3+0x574>
   246dc:	00800434 	movhi	r2,16
   246e0:	89400234 	orhi	r5,r17,8
   246e4:	10bfffc4 	addi	r2,r2,-1
   246e8:	b82b883a 	mov	r21,r23
   246ec:	288a703a 	and	r5,r5,r2
   246f0:	4029883a 	mov	r20,r8
   246f4:	003f6806 	br	24498 <__alt_data_end+0xfffe4498>
   246f8:	00800434 	movhi	r2,16
   246fc:	81400234 	orhi	r5,r16,8
   24700:	10bfffc4 	addi	r2,r2,-1
   24704:	288a703a 	and	r5,r5,r2
   24708:	003f6306 	br	24498 <__alt_data_end+0xfffe4498>
   2470c:	147ff604 	addi	r17,r2,-40
   24710:	3462983a 	sll	r17,r6,r17
   24714:	0011883a 	mov	r8,zero
   24718:	003f4406 	br	2442c <__alt_data_end+0xfffe442c>
   2471c:	3009883a 	mov	r4,r6
   24720:	d9800215 	stw	r6,8(sp)
   24724:	da400115 	stw	r9,4(sp)
   24728:	da800015 	stw	r10,0(sp)
   2472c:	0024a200 	call	24a20 <__clzsi2>
   24730:	10800804 	addi	r2,r2,32
   24734:	da800017 	ldw	r10,0(sp)
   24738:	da400117 	ldw	r9,4(sp)
   2473c:	d9800217 	ldw	r6,8(sp)
   24740:	003f3006 	br	24404 <__alt_data_end+0xfffe4404>
   24744:	143ff604 	addi	r16,r2,-40
   24748:	9c20983a 	sll	r16,r19,r16
   2474c:	0029883a 	mov	r20,zero
   24750:	003f1606 	br	243ac <__alt_data_end+0xfffe43ac>
   24754:	d9800215 	stw	r6,8(sp)
   24758:	d9c00015 	stw	r7,0(sp)
   2475c:	da400115 	stw	r9,4(sp)
   24760:	0024a200 	call	24a20 <__clzsi2>
   24764:	10800804 	addi	r2,r2,32
   24768:	da400117 	ldw	r9,4(sp)
   2476c:	d9c00017 	ldw	r7,0(sp)
   24770:	d9800217 	ldw	r6,8(sp)
   24774:	003f0306 	br	24384 <__alt_data_end+0xfffe4384>
   24778:	00c00044 	movi	r3,1
   2477c:	1947c83a 	sub	r3,r3,r5
   24780:	00800e04 	movi	r2,56
   24784:	10feda16 	blt	r2,r3,242f0 <__alt_data_end+0xfffe42f0>
   24788:	008007c4 	movi	r2,31
   2478c:	10c01b16 	blt	r2,r3,247fc <__muldf3+0x678>
   24790:	00800804 	movi	r2,32
   24794:	10c5c83a 	sub	r2,r2,r3
   24798:	888a983a 	sll	r5,r17,r2
   2479c:	40c8d83a 	srl	r4,r8,r3
   247a0:	4084983a 	sll	r2,r8,r2
   247a4:	88e2d83a 	srl	r17,r17,r3
   247a8:	2906b03a 	or	r3,r5,r4
   247ac:	1004c03a 	cmpne	r2,r2,zero
   247b0:	1886b03a 	or	r3,r3,r2
   247b4:	188001cc 	andi	r2,r3,7
   247b8:	10000726 	beq	r2,zero,247d8 <__muldf3+0x654>
   247bc:	188003cc 	andi	r2,r3,15
   247c0:	01000104 	movi	r4,4
   247c4:	11000426 	beq	r2,r4,247d8 <__muldf3+0x654>
   247c8:	1805883a 	mov	r2,r3
   247cc:	10c00104 	addi	r3,r2,4
   247d0:	1885803a 	cmpltu	r2,r3,r2
   247d4:	88a3883a 	add	r17,r17,r2
   247d8:	8880202c 	andhi	r2,r17,128
   247dc:	10001c26 	beq	r2,zero,24850 <__muldf3+0x6cc>
   247e0:	b02b883a 	mov	r21,r22
   247e4:	00800044 	movi	r2,1
   247e8:	000b883a 	mov	r5,zero
   247ec:	0029883a 	mov	r20,zero
   247f0:	003ec306 	br	24300 <__alt_data_end+0xfffe4300>
   247f4:	5805883a 	mov	r2,r11
   247f8:	003f9906 	br	24660 <__alt_data_end+0xfffe4660>
   247fc:	00bff844 	movi	r2,-31
   24800:	1145c83a 	sub	r2,r2,r5
   24804:	8888d83a 	srl	r4,r17,r2
   24808:	00800804 	movi	r2,32
   2480c:	18801a26 	beq	r3,r2,24878 <__muldf3+0x6f4>
   24810:	00801004 	movi	r2,64
   24814:	10c5c83a 	sub	r2,r2,r3
   24818:	8884983a 	sll	r2,r17,r2
   2481c:	1204b03a 	or	r2,r2,r8
   24820:	1004c03a 	cmpne	r2,r2,zero
   24824:	2084b03a 	or	r2,r4,r2
   24828:	144001cc 	andi	r17,r2,7
   2482c:	88000d1e 	bne	r17,zero,24864 <__muldf3+0x6e0>
   24830:	000b883a 	mov	r5,zero
   24834:	1028d0fa 	srli	r20,r2,3
   24838:	b02b883a 	mov	r21,r22
   2483c:	0005883a 	mov	r2,zero
   24840:	a468b03a 	or	r20,r20,r17
   24844:	003eae06 	br	24300 <__alt_data_end+0xfffe4300>
   24848:	1007883a 	mov	r3,r2
   2484c:	0023883a 	mov	r17,zero
   24850:	880a927a 	slli	r5,r17,9
   24854:	1805883a 	mov	r2,r3
   24858:	8822977a 	slli	r17,r17,29
   2485c:	280ad33a 	srli	r5,r5,12
   24860:	003ff406 	br	24834 <__alt_data_end+0xfffe4834>
   24864:	10c003cc 	andi	r3,r2,15
   24868:	01000104 	movi	r4,4
   2486c:	193ff626 	beq	r3,r4,24848 <__alt_data_end+0xfffe4848>
   24870:	0023883a 	mov	r17,zero
   24874:	003fd506 	br	247cc <__alt_data_end+0xfffe47cc>
   24878:	0005883a 	mov	r2,zero
   2487c:	003fe706 	br	2481c <__alt_data_end+0xfffe481c>
   24880:	00800434 	movhi	r2,16
   24884:	89400234 	orhi	r5,r17,8
   24888:	10bfffc4 	addi	r2,r2,-1
   2488c:	b02b883a 	mov	r21,r22
   24890:	288a703a 	and	r5,r5,r2
   24894:	4029883a 	mov	r20,r8
   24898:	003eff06 	br	24498 <__alt_data_end+0xfffe4498>

0002489c <__floatsidf>:
   2489c:	defffd04 	addi	sp,sp,-12
   248a0:	dfc00215 	stw	ra,8(sp)
   248a4:	dc400115 	stw	r17,4(sp)
   248a8:	dc000015 	stw	r16,0(sp)
   248ac:	20002b26 	beq	r4,zero,2495c <__floatsidf+0xc0>
   248b0:	2023883a 	mov	r17,r4
   248b4:	2020d7fa 	srli	r16,r4,31
   248b8:	20002d16 	blt	r4,zero,24970 <__floatsidf+0xd4>
   248bc:	8809883a 	mov	r4,r17
   248c0:	0024a200 	call	24a20 <__clzsi2>
   248c4:	01410784 	movi	r5,1054
   248c8:	288bc83a 	sub	r5,r5,r2
   248cc:	01010cc4 	movi	r4,1075
   248d0:	2149c83a 	sub	r4,r4,r5
   248d4:	00c007c4 	movi	r3,31
   248d8:	1900160e 	bge	r3,r4,24934 <__floatsidf+0x98>
   248dc:	00c104c4 	movi	r3,1043
   248e0:	1947c83a 	sub	r3,r3,r5
   248e4:	88c6983a 	sll	r3,r17,r3
   248e8:	00800434 	movhi	r2,16
   248ec:	10bfffc4 	addi	r2,r2,-1
   248f0:	1886703a 	and	r3,r3,r2
   248f4:	2941ffcc 	andi	r5,r5,2047
   248f8:	800d883a 	mov	r6,r16
   248fc:	0005883a 	mov	r2,zero
   24900:	280a953a 	slli	r5,r5,20
   24904:	31803fcc 	andi	r6,r6,255
   24908:	01000434 	movhi	r4,16
   2490c:	300c97fa 	slli	r6,r6,31
   24910:	213fffc4 	addi	r4,r4,-1
   24914:	1906703a 	and	r3,r3,r4
   24918:	1946b03a 	or	r3,r3,r5
   2491c:	1986b03a 	or	r3,r3,r6
   24920:	dfc00217 	ldw	ra,8(sp)
   24924:	dc400117 	ldw	r17,4(sp)
   24928:	dc000017 	ldw	r16,0(sp)
   2492c:	dec00304 	addi	sp,sp,12
   24930:	f800283a 	ret
   24934:	00c002c4 	movi	r3,11
   24938:	1887c83a 	sub	r3,r3,r2
   2493c:	88c6d83a 	srl	r3,r17,r3
   24940:	8904983a 	sll	r2,r17,r4
   24944:	01000434 	movhi	r4,16
   24948:	213fffc4 	addi	r4,r4,-1
   2494c:	2941ffcc 	andi	r5,r5,2047
   24950:	1906703a 	and	r3,r3,r4
   24954:	800d883a 	mov	r6,r16
   24958:	003fe906 	br	24900 <__alt_data_end+0xfffe4900>
   2495c:	000d883a 	mov	r6,zero
   24960:	000b883a 	mov	r5,zero
   24964:	0007883a 	mov	r3,zero
   24968:	0005883a 	mov	r2,zero
   2496c:	003fe406 	br	24900 <__alt_data_end+0xfffe4900>
   24970:	0123c83a 	sub	r17,zero,r4
   24974:	003fd106 	br	248bc <__alt_data_end+0xfffe48bc>

00024978 <__floatunsidf>:
   24978:	defffe04 	addi	sp,sp,-8
   2497c:	dc000015 	stw	r16,0(sp)
   24980:	dfc00115 	stw	ra,4(sp)
   24984:	2021883a 	mov	r16,r4
   24988:	20002226 	beq	r4,zero,24a14 <__floatunsidf+0x9c>
   2498c:	0024a200 	call	24a20 <__clzsi2>
   24990:	01010784 	movi	r4,1054
   24994:	2089c83a 	sub	r4,r4,r2
   24998:	01810cc4 	movi	r6,1075
   2499c:	310dc83a 	sub	r6,r6,r4
   249a0:	00c007c4 	movi	r3,31
   249a4:	1980120e 	bge	r3,r6,249f0 <__floatunsidf+0x78>
   249a8:	00c104c4 	movi	r3,1043
   249ac:	1907c83a 	sub	r3,r3,r4
   249b0:	80ca983a 	sll	r5,r16,r3
   249b4:	00800434 	movhi	r2,16
   249b8:	10bfffc4 	addi	r2,r2,-1
   249bc:	2101ffcc 	andi	r4,r4,2047
   249c0:	0021883a 	mov	r16,zero
   249c4:	288a703a 	and	r5,r5,r2
   249c8:	2008953a 	slli	r4,r4,20
   249cc:	00c00434 	movhi	r3,16
   249d0:	18ffffc4 	addi	r3,r3,-1
   249d4:	28c6703a 	and	r3,r5,r3
   249d8:	8005883a 	mov	r2,r16
   249dc:	1906b03a 	or	r3,r3,r4
   249e0:	dfc00117 	ldw	ra,4(sp)
   249e4:	dc000017 	ldw	r16,0(sp)
   249e8:	dec00204 	addi	sp,sp,8
   249ec:	f800283a 	ret
   249f0:	00c002c4 	movi	r3,11
   249f4:	188bc83a 	sub	r5,r3,r2
   249f8:	814ad83a 	srl	r5,r16,r5
   249fc:	00c00434 	movhi	r3,16
   24a00:	18ffffc4 	addi	r3,r3,-1
   24a04:	81a0983a 	sll	r16,r16,r6
   24a08:	2101ffcc 	andi	r4,r4,2047
   24a0c:	28ca703a 	and	r5,r5,r3
   24a10:	003fed06 	br	249c8 <__alt_data_end+0xfffe49c8>
   24a14:	0009883a 	mov	r4,zero
   24a18:	000b883a 	mov	r5,zero
   24a1c:	003fea06 	br	249c8 <__alt_data_end+0xfffe49c8>

00024a20 <__clzsi2>:
   24a20:	00bfffd4 	movui	r2,65535
   24a24:	11000536 	bltu	r2,r4,24a3c <__clzsi2+0x1c>
   24a28:	00803fc4 	movi	r2,255
   24a2c:	11000f36 	bltu	r2,r4,24a6c <__clzsi2+0x4c>
   24a30:	00800804 	movi	r2,32
   24a34:	0007883a 	mov	r3,zero
   24a38:	00000506 	br	24a50 <__clzsi2+0x30>
   24a3c:	00804034 	movhi	r2,256
   24a40:	10bfffc4 	addi	r2,r2,-1
   24a44:	11000c2e 	bgeu	r2,r4,24a78 <__clzsi2+0x58>
   24a48:	00800204 	movi	r2,8
   24a4c:	00c00604 	movi	r3,24
   24a50:	20c8d83a 	srl	r4,r4,r3
   24a54:	00c000f4 	movhi	r3,3
   24a58:	18cfb304 	addi	r3,r3,16076
   24a5c:	1909883a 	add	r4,r3,r4
   24a60:	20c00003 	ldbu	r3,0(r4)
   24a64:	10c5c83a 	sub	r2,r2,r3
   24a68:	f800283a 	ret
   24a6c:	00800604 	movi	r2,24
   24a70:	00c00204 	movi	r3,8
   24a74:	003ff606 	br	24a50 <__alt_data_end+0xfffe4a50>
   24a78:	00800404 	movi	r2,16
   24a7c:	1007883a 	mov	r3,r2
   24a80:	003ff306 	br	24a50 <__alt_data_end+0xfffe4a50>

00024a84 <_fopen_r>:
   24a84:	defffa04 	addi	sp,sp,-24
   24a88:	3005883a 	mov	r2,r6
   24a8c:	dcc00415 	stw	r19,16(sp)
   24a90:	d80d883a 	mov	r6,sp
   24a94:	2827883a 	mov	r19,r5
   24a98:	100b883a 	mov	r5,r2
   24a9c:	dc800315 	stw	r18,12(sp)
   24aa0:	dfc00515 	stw	ra,20(sp)
   24aa4:	dc400215 	stw	r17,8(sp)
   24aa8:	dc000115 	stw	r16,4(sp)
   24aac:	2025883a 	mov	r18,r4
   24ab0:	002a6840 	call	2a684 <__sflags>
   24ab4:	10002726 	beq	r2,zero,24b54 <_fopen_r+0xd0>
   24ab8:	9009883a 	mov	r4,r18
   24abc:	1023883a 	mov	r17,r2
   24ac0:	002a5040 	call	2a504 <__sfp>
   24ac4:	1021883a 	mov	r16,r2
   24ac8:	10002226 	beq	r2,zero,24b54 <_fopen_r+0xd0>
   24acc:	d9800017 	ldw	r6,0(sp)
   24ad0:	01c06d84 	movi	r7,438
   24ad4:	980b883a 	mov	r5,r19
   24ad8:	9009883a 	mov	r4,r18
   24adc:	0025c7c0 	call	25c7c <_open_r>
   24ae0:	10001916 	blt	r2,zero,24b48 <_fopen_r+0xc4>
   24ae4:	8080038d 	sth	r2,14(r16)
   24ae8:	008000b4 	movhi	r2,2
   24aec:	10984204 	addi	r2,r2,24840
   24af0:	80800815 	stw	r2,32(r16)
   24af4:	008000b4 	movhi	r2,2
   24af8:	10985904 	addi	r2,r2,24932
   24afc:	80800915 	stw	r2,36(r16)
   24b00:	008000b4 	movhi	r2,2
   24b04:	10987804 	addi	r2,r2,25056
   24b08:	80800a15 	stw	r2,40(r16)
   24b0c:	008000b4 	movhi	r2,2
   24b10:	10988f04 	addi	r2,r2,25148
   24b14:	8440030d 	sth	r17,12(r16)
   24b18:	84000715 	stw	r16,28(r16)
   24b1c:	80800b15 	stw	r2,44(r16)
   24b20:	8c40400c 	andi	r17,r17,256
   24b24:	88000d1e 	bne	r17,zero,24b5c <_fopen_r+0xd8>
   24b28:	8005883a 	mov	r2,r16
   24b2c:	dfc00517 	ldw	ra,20(sp)
   24b30:	dcc00417 	ldw	r19,16(sp)
   24b34:	dc800317 	ldw	r18,12(sp)
   24b38:	dc400217 	ldw	r17,8(sp)
   24b3c:	dc000117 	ldw	r16,4(sp)
   24b40:	dec00604 	addi	sp,sp,24
   24b44:	f800283a 	ret
   24b48:	002a6440 	call	2a644 <__sfp_lock_acquire>
   24b4c:	8000030d 	sth	zero,12(r16)
   24b50:	002a6480 	call	2a648 <__sfp_lock_release>
   24b54:	0005883a 	mov	r2,zero
   24b58:	003ff406 	br	24b2c <__alt_data_end+0xfffe4b2c>
   24b5c:	01c00084 	movi	r7,2
   24b60:	000d883a 	mov	r6,zero
   24b64:	800b883a 	mov	r5,r16
   24b68:	9009883a 	mov	r4,r18
   24b6c:	0024b900 	call	24b90 <_fseek_r>
   24b70:	8005883a 	mov	r2,r16
   24b74:	003fed06 	br	24b2c <__alt_data_end+0xfffe4b2c>

00024b78 <fopen>:
   24b78:	008000f4 	movhi	r2,3
   24b7c:	10994004 	addi	r2,r2,25856
   24b80:	280d883a 	mov	r6,r5
   24b84:	200b883a 	mov	r5,r4
   24b88:	11000017 	ldw	r4,0(r2)
   24b8c:	0024a841 	jmpi	24a84 <_fopen_r>

00024b90 <_fseek_r>:
   24b90:	0024bb01 	jmpi	24bb0 <_fseeko_r>

00024b94 <fseek>:
   24b94:	008000f4 	movhi	r2,3
   24b98:	10994004 	addi	r2,r2,25856
   24b9c:	300f883a 	mov	r7,r6
   24ba0:	280d883a 	mov	r6,r5
   24ba4:	200b883a 	mov	r5,r4
   24ba8:	11000017 	ldw	r4,0(r2)
   24bac:	0024bb01 	jmpi	24bb0 <_fseeko_r>

00024bb0 <_fseeko_r>:
   24bb0:	deffe804 	addi	sp,sp,-96
   24bb4:	dd401415 	stw	r21,80(sp)
   24bb8:	dc801115 	stw	r18,68(sp)
   24bbc:	dc401015 	stw	r17,64(sp)
   24bc0:	dc000f15 	stw	r16,60(sp)
   24bc4:	dfc01715 	stw	ra,92(sp)
   24bc8:	ddc01615 	stw	r23,88(sp)
   24bcc:	dd801515 	stw	r22,84(sp)
   24bd0:	dd001315 	stw	r20,76(sp)
   24bd4:	dcc01215 	stw	r19,72(sp)
   24bd8:	2023883a 	mov	r17,r4
   24bdc:	2821883a 	mov	r16,r5
   24be0:	302b883a 	mov	r21,r6
   24be4:	3825883a 	mov	r18,r7
   24be8:	20000226 	beq	r4,zero,24bf4 <_fseeko_r+0x44>
   24bec:	20800e17 	ldw	r2,56(r4)
   24bf0:	10005a26 	beq	r2,zero,24d5c <_fseeko_r+0x1ac>
   24bf4:	8080030b 	ldhu	r2,12(r16)
   24bf8:	00c04204 	movi	r3,264
   24bfc:	1080420c 	andi	r2,r2,264
   24c00:	10c05b26 	beq	r2,r3,24d70 <_fseeko_r+0x1c0>
   24c04:	85000a17 	ldw	r20,40(r16)
   24c08:	a000f626 	beq	r20,zero,24fe4 <_fseeko_r+0x434>
   24c0c:	00800044 	movi	r2,1
   24c10:	90803e26 	beq	r18,r2,24d0c <_fseeko_r+0x15c>
   24c14:	00800084 	movi	r2,2
   24c18:	90801026 	beq	r18,r2,24c5c <_fseeko_r+0xac>
   24c1c:	90000f26 	beq	r18,zero,24c5c <_fseeko_r+0xac>
   24c20:	00800584 	movi	r2,22
   24c24:	88800015 	stw	r2,0(r17)
   24c28:	04ffffc4 	movi	r19,-1
   24c2c:	9805883a 	mov	r2,r19
   24c30:	dfc01717 	ldw	ra,92(sp)
   24c34:	ddc01617 	ldw	r23,88(sp)
   24c38:	dd801517 	ldw	r22,84(sp)
   24c3c:	dd401417 	ldw	r21,80(sp)
   24c40:	dd001317 	ldw	r20,76(sp)
   24c44:	dcc01217 	ldw	r19,72(sp)
   24c48:	dc801117 	ldw	r18,68(sp)
   24c4c:	dc401017 	ldw	r17,64(sp)
   24c50:	dc000f17 	ldw	r16,60(sp)
   24c54:	dec01804 	addi	sp,sp,96
   24c58:	f800283a 	ret
   24c5c:	80800417 	ldw	r2,16(r16)
   24c60:	002f883a 	mov	r23,zero
   24c64:	0027883a 	mov	r19,zero
   24c68:	1000cb26 	beq	r2,zero,24f98 <_fseeko_r+0x3e8>
   24c6c:	8080030b 	ldhu	r2,12(r16)
   24c70:	10c2068c 	andi	r3,r2,2074
   24c74:	1800071e 	bne	r3,zero,24c94 <_fseeko_r+0xe4>
   24c78:	10c1000c 	andi	r3,r2,1024
   24c7c:	1800451e 	bne	r3,zero,24d94 <_fseeko_r+0x1e4>
   24c80:	00c000b4 	movhi	r3,2
   24c84:	18d87804 	addi	r3,r3,25056
   24c88:	a0c0b726 	beq	r20,r3,24f68 <_fseeko_r+0x3b8>
   24c8c:	10820014 	ori	r2,r2,2048
   24c90:	8080030d 	sth	r2,12(r16)
   24c94:	800b883a 	mov	r5,r16
   24c98:	8809883a 	mov	r4,r17
   24c9c:	002a2580 	call	2a258 <_fflush_r>
   24ca0:	1027883a 	mov	r19,r2
   24ca4:	103fe01e 	bne	r2,zero,24c28 <__alt_data_end+0xfffe4c28>
   24ca8:	81400717 	ldw	r5,28(r16)
   24cac:	900f883a 	mov	r7,r18
   24cb0:	a80d883a 	mov	r6,r21
   24cb4:	8809883a 	mov	r4,r17
   24cb8:	a03ee83a 	callr	r20
   24cbc:	00ffffc4 	movi	r3,-1
   24cc0:	10ffd926 	beq	r2,r3,24c28 <__alt_data_end+0xfffe4c28>
   24cc4:	81400c17 	ldw	r5,48(r16)
   24cc8:	28000526 	beq	r5,zero,24ce0 <_fseeko_r+0x130>
   24ccc:	80801004 	addi	r2,r16,64
   24cd0:	28800226 	beq	r5,r2,24cdc <_fseeko_r+0x12c>
   24cd4:	8809883a 	mov	r4,r17
   24cd8:	002a8540 	call	2a854 <_free_r>
   24cdc:	80000c15 	stw	zero,48(r16)
   24ce0:	8080030b 	ldhu	r2,12(r16)
   24ce4:	80c00417 	ldw	r3,16(r16)
   24ce8:	80000115 	stw	zero,4(r16)
   24cec:	10bdf7cc 	andi	r2,r2,63455
   24cf0:	80c00015 	stw	r3,0(r16)
   24cf4:	8080030d 	sth	r2,12(r16)
   24cf8:	01800204 	movi	r6,8
   24cfc:	000b883a 	mov	r5,zero
   24d00:	81001704 	addi	r4,r16,92
   24d04:	0025b540 	call	25b54 <memset>
   24d08:	003fc806 	br	24c2c <__alt_data_end+0xfffe4c2c>
   24d0c:	800b883a 	mov	r5,r16
   24d10:	8809883a 	mov	r4,r17
   24d14:	002a2580 	call	2a258 <_fflush_r>
   24d18:	8080030b 	ldhu	r2,12(r16)
   24d1c:	10c4000c 	andi	r3,r2,4096
   24d20:	18008726 	beq	r3,zero,24f40 <_fseeko_r+0x390>
   24d24:	84c01417 	ldw	r19,80(r16)
   24d28:	10c0010c 	andi	r3,r2,4
   24d2c:	1800431e 	bne	r3,zero,24e3c <_fseeko_r+0x28c>
   24d30:	1080020c 	andi	r2,r2,8
   24d34:	10008026 	beq	r2,zero,24f38 <_fseeko_r+0x388>
   24d38:	80c00017 	ldw	r3,0(r16)
   24d3c:	80800417 	ldw	r2,16(r16)
   24d40:	18000226 	beq	r3,zero,24d4c <_fseeko_r+0x19c>
   24d44:	1887c83a 	sub	r3,r3,r2
   24d48:	98e7883a 	add	r19,r19,r3
   24d4c:	aceb883a 	add	r21,r21,r19
   24d50:	05c00044 	movi	r23,1
   24d54:	0025883a 	mov	r18,zero
   24d58:	003fc306 	br	24c68 <__alt_data_end+0xfffe4c68>
   24d5c:	002a6340 	call	2a634 <__sinit>
   24d60:	8080030b 	ldhu	r2,12(r16)
   24d64:	00c04204 	movi	r3,264
   24d68:	1080420c 	andi	r2,r2,264
   24d6c:	10ffa51e 	bne	r2,r3,24c04 <__alt_data_end+0xfffe4c04>
   24d70:	800b883a 	mov	r5,r16
   24d74:	8809883a 	mov	r4,r17
   24d78:	002a2580 	call	2a258 <_fflush_r>
   24d7c:	003fa106 	br	24c04 <__alt_data_end+0xfffe4c04>
   24d80:	8080030b 	ldhu	r2,12(r16)
   24d84:	00c10004 	movi	r3,1024
   24d88:	80c01315 	stw	r3,76(r16)
   24d8c:	10c4b03a 	or	r2,r2,r3
   24d90:	8080030d 	sth	r2,12(r16)
   24d94:	9000311e 	bne	r18,zero,24e5c <_fseeko_r+0x2ac>
   24d98:	a82d883a 	mov	r22,r21
   24d9c:	b800371e 	bne	r23,zero,24e7c <_fseeko_r+0x2cc>
   24da0:	8080030b 	ldhu	r2,12(r16)
   24da4:	1084000c 	andi	r2,r2,4096
   24da8:	10007f26 	beq	r2,zero,24fa8 <_fseeko_r+0x3f8>
   24dac:	80801417 	ldw	r2,80(r16)
   24db0:	81800117 	ldw	r6,4(r16)
   24db4:	81400c17 	ldw	r5,48(r16)
   24db8:	11a7c83a 	sub	r19,r2,r6
   24dbc:	28008226 	beq	r5,zero,24fc8 <_fseeko_r+0x418>
   24dc0:	81c00f17 	ldw	r7,60(r16)
   24dc4:	99e7c83a 	sub	r19,r19,r7
   24dc8:	81000e17 	ldw	r4,56(r16)
   24dcc:	80800417 	ldw	r2,16(r16)
   24dd0:	99a7883a 	add	r19,r19,r6
   24dd4:	2087c83a 	sub	r3,r4,r2
   24dd8:	98e7c83a 	sub	r19,r19,r3
   24ddc:	38c7883a 	add	r3,r7,r3
   24de0:	b4c02b16 	blt	r22,r19,24e90 <_fseeko_r+0x2e0>
   24de4:	98c9883a 	add	r4,r19,r3
   24de8:	b100292e 	bgeu	r22,r4,24e90 <_fseeko_r+0x2e0>
   24dec:	b4e7c83a 	sub	r19,r22,r19
   24df0:	14c5883a 	add	r2,r2,r19
   24df4:	1ce7c83a 	sub	r19,r3,r19
   24df8:	80800015 	stw	r2,0(r16)
   24dfc:	84c00115 	stw	r19,4(r16)
   24e00:	28000526 	beq	r5,zero,24e18 <_fseeko_r+0x268>
   24e04:	80801004 	addi	r2,r16,64
   24e08:	28800226 	beq	r5,r2,24e14 <_fseeko_r+0x264>
   24e0c:	8809883a 	mov	r4,r17
   24e10:	002a8540 	call	2a854 <_free_r>
   24e14:	80000c15 	stw	zero,48(r16)
   24e18:	8080030b 	ldhu	r2,12(r16)
   24e1c:	01800204 	movi	r6,8
   24e20:	000b883a 	mov	r5,zero
   24e24:	10bff7cc 	andi	r2,r2,65503
   24e28:	8080030d 	sth	r2,12(r16)
   24e2c:	81001704 	addi	r4,r16,92
   24e30:	0025b540 	call	25b54 <memset>
   24e34:	0027883a 	mov	r19,zero
   24e38:	003f7c06 	br	24c2c <__alt_data_end+0xfffe4c2c>
   24e3c:	80c00117 	ldw	r3,4(r16)
   24e40:	80800c17 	ldw	r2,48(r16)
   24e44:	98e7c83a 	sub	r19,r19,r3
   24e48:	10003b26 	beq	r2,zero,24f38 <_fseeko_r+0x388>
   24e4c:	80c00f17 	ldw	r3,60(r16)
   24e50:	80800417 	ldw	r2,16(r16)
   24e54:	98e7c83a 	sub	r19,r19,r3
   24e58:	003fbc06 	br	24d4c <__alt_data_end+0xfffe4d4c>
   24e5c:	8140038f 	ldh	r5,14(r16)
   24e60:	d80d883a 	mov	r6,sp
   24e64:	8809883a 	mov	r4,r17
   24e68:	00250100 	call	25010 <_fstat_r>
   24e6c:	103f891e 	bne	r2,zero,24c94 <__alt_data_end+0xfffe4c94>
   24e70:	dd800417 	ldw	r22,16(sp)
   24e74:	adad883a 	add	r22,r21,r22
   24e78:	b83fc926 	beq	r23,zero,24da0 <__alt_data_end+0xfffe4da0>
   24e7c:	81400c17 	ldw	r5,48(r16)
   24e80:	81800117 	ldw	r6,4(r16)
   24e84:	28005026 	beq	r5,zero,24fc8 <_fseeko_r+0x418>
   24e88:	81c00f17 	ldw	r7,60(r16)
   24e8c:	003fce06 	br	24dc8 <__alt_data_end+0xfffe4dc8>
   24e90:	84c01317 	ldw	r19,76(r16)
   24e94:	81400717 	ldw	r5,28(r16)
   24e98:	000f883a 	mov	r7,zero
   24e9c:	04e7c83a 	sub	r19,zero,r19
   24ea0:	9da6703a 	and	r19,r19,r22
   24ea4:	980d883a 	mov	r6,r19
   24ea8:	8809883a 	mov	r4,r17
   24eac:	a03ee83a 	callr	r20
   24eb0:	00ffffc4 	movi	r3,-1
   24eb4:	10ff7726 	beq	r2,r3,24c94 <__alt_data_end+0xfffe4c94>
   24eb8:	80800417 	ldw	r2,16(r16)
   24ebc:	81400c17 	ldw	r5,48(r16)
   24ec0:	80000115 	stw	zero,4(r16)
   24ec4:	80800015 	stw	r2,0(r16)
   24ec8:	28000526 	beq	r5,zero,24ee0 <_fseeko_r+0x330>
   24ecc:	80801004 	addi	r2,r16,64
   24ed0:	28800226 	beq	r5,r2,24edc <_fseeko_r+0x32c>
   24ed4:	8809883a 	mov	r4,r17
   24ed8:	002a8540 	call	2a854 <_free_r>
   24edc:	80000c15 	stw	zero,48(r16)
   24ee0:	8080030b 	ldhu	r2,12(r16)
   24ee4:	b4e7c83a 	sub	r19,r22,r19
   24ee8:	10bff7cc 	andi	r2,r2,65503
   24eec:	8080030d 	sth	r2,12(r16)
   24ef0:	98000b26 	beq	r19,zero,24f20 <_fseeko_r+0x370>
   24ef4:	800b883a 	mov	r5,r16
   24ef8:	8809883a 	mov	r4,r17
   24efc:	0025e580 	call	25e58 <__srefill_r>
   24f00:	103f641e 	bne	r2,zero,24c94 <__alt_data_end+0xfffe4c94>
   24f04:	80800117 	ldw	r2,4(r16)
   24f08:	14ff6236 	bltu	r2,r19,24c94 <__alt_data_end+0xfffe4c94>
   24f0c:	80c00017 	ldw	r3,0(r16)
   24f10:	14c5c83a 	sub	r2,r2,r19
   24f14:	80800115 	stw	r2,4(r16)
   24f18:	1ce7883a 	add	r19,r3,r19
   24f1c:	84c00015 	stw	r19,0(r16)
   24f20:	01800204 	movi	r6,8
   24f24:	000b883a 	mov	r5,zero
   24f28:	81001704 	addi	r4,r16,92
   24f2c:	0025b540 	call	25b54 <memset>
   24f30:	0027883a 	mov	r19,zero
   24f34:	003f3d06 	br	24c2c <__alt_data_end+0xfffe4c2c>
   24f38:	80800417 	ldw	r2,16(r16)
   24f3c:	003f8306 	br	24d4c <__alt_data_end+0xfffe4d4c>
   24f40:	81400717 	ldw	r5,28(r16)
   24f44:	900f883a 	mov	r7,r18
   24f48:	000d883a 	mov	r6,zero
   24f4c:	8809883a 	mov	r4,r17
   24f50:	a03ee83a 	callr	r20
   24f54:	1027883a 	mov	r19,r2
   24f58:	00bfffc4 	movi	r2,-1
   24f5c:	98bf3226 	beq	r19,r2,24c28 <__alt_data_end+0xfffe4c28>
   24f60:	8080030b 	ldhu	r2,12(r16)
   24f64:	003f7006 	br	24d28 <__alt_data_end+0xfffe4d28>
   24f68:	8140038f 	ldh	r5,14(r16)
   24f6c:	283f4716 	blt	r5,zero,24c8c <__alt_data_end+0xfffe4c8c>
   24f70:	d80d883a 	mov	r6,sp
   24f74:	8809883a 	mov	r4,r17
   24f78:	00250100 	call	25010 <_fstat_r>
   24f7c:	1000041e 	bne	r2,zero,24f90 <_fseeko_r+0x3e0>
   24f80:	d8800117 	ldw	r2,4(sp)
   24f84:	00e00014 	movui	r3,32768
   24f88:	10bc000c 	andi	r2,r2,61440
   24f8c:	10ff7c26 	beq	r2,r3,24d80 <__alt_data_end+0xfffe4d80>
   24f90:	8080030b 	ldhu	r2,12(r16)
   24f94:	003f3d06 	br	24c8c <__alt_data_end+0xfffe4c8c>
   24f98:	800b883a 	mov	r5,r16
   24f9c:	8809883a 	mov	r4,r17
   24fa0:	00251640 	call	25164 <__smakebuf_r>
   24fa4:	003f3106 	br	24c6c <__alt_data_end+0xfffe4c6c>
   24fa8:	81400717 	ldw	r5,28(r16)
   24fac:	01c00044 	movi	r7,1
   24fb0:	000d883a 	mov	r6,zero
   24fb4:	8809883a 	mov	r4,r17
   24fb8:	a03ee83a 	callr	r20
   24fbc:	00ffffc4 	movi	r3,-1
   24fc0:	10ff7b1e 	bne	r2,r3,24db0 <__alt_data_end+0xfffe4db0>
   24fc4:	003f3306 	br	24c94 <__alt_data_end+0xfffe4c94>
   24fc8:	80c00017 	ldw	r3,0(r16)
   24fcc:	80800417 	ldw	r2,16(r16)
   24fd0:	000b883a 	mov	r5,zero
   24fd4:	1887c83a 	sub	r3,r3,r2
   24fd8:	98e7c83a 	sub	r19,r19,r3
   24fdc:	30c7883a 	add	r3,r6,r3
   24fe0:	003f7f06 	br	24de0 <__alt_data_end+0xfffe4de0>
   24fe4:	00800744 	movi	r2,29
   24fe8:	88800015 	stw	r2,0(r17)
   24fec:	04ffffc4 	movi	r19,-1
   24ff0:	003f0e06 	br	24c2c <__alt_data_end+0xfffe4c2c>

00024ff4 <fseeko>:
   24ff4:	008000f4 	movhi	r2,3
   24ff8:	10994004 	addi	r2,r2,25856
   24ffc:	300f883a 	mov	r7,r6
   25000:	280d883a 	mov	r6,r5
   25004:	200b883a 	mov	r5,r4
   25008:	11000017 	ldw	r4,0(r2)
   2500c:	0024bb01 	jmpi	24bb0 <_fseeko_r>

00025010 <_fstat_r>:
   25010:	defffd04 	addi	sp,sp,-12
   25014:	2805883a 	mov	r2,r5
   25018:	dc000015 	stw	r16,0(sp)
   2501c:	04000134 	movhi	r16,4
   25020:	dc400115 	stw	r17,4(sp)
   25024:	84222e04 	addi	r16,r16,-30536
   25028:	2023883a 	mov	r17,r4
   2502c:	300b883a 	mov	r5,r6
   25030:	1009883a 	mov	r4,r2
   25034:	dfc00215 	stw	ra,8(sp)
   25038:	80000015 	stw	zero,0(r16)
   2503c:	00306200 	call	30620 <fstat>
   25040:	00ffffc4 	movi	r3,-1
   25044:	10c00526 	beq	r2,r3,2505c <_fstat_r+0x4c>
   25048:	dfc00217 	ldw	ra,8(sp)
   2504c:	dc400117 	ldw	r17,4(sp)
   25050:	dc000017 	ldw	r16,0(sp)
   25054:	dec00304 	addi	sp,sp,12
   25058:	f800283a 	ret
   2505c:	80c00017 	ldw	r3,0(r16)
   25060:	183ff926 	beq	r3,zero,25048 <__alt_data_end+0xfffe5048>
   25064:	88c00015 	stw	r3,0(r17)
   25068:	003ff706 	br	25048 <__alt_data_end+0xfffe5048>

0002506c <_getc_r>:
   2506c:	defffd04 	addi	sp,sp,-12
   25070:	dc000115 	stw	r16,4(sp)
   25074:	dfc00215 	stw	ra,8(sp)
   25078:	2021883a 	mov	r16,r4
   2507c:	20000226 	beq	r4,zero,25088 <_getc_r+0x1c>
   25080:	20800e17 	ldw	r2,56(r4)
   25084:	10000c26 	beq	r2,zero,250b8 <_getc_r+0x4c>
   25088:	28800117 	ldw	r2,4(r5)
   2508c:	10bfffc4 	addi	r2,r2,-1
   25090:	28800115 	stw	r2,4(r5)
   25094:	10000c16 	blt	r2,zero,250c8 <_getc_r+0x5c>
   25098:	28800017 	ldw	r2,0(r5)
   2509c:	10c00044 	addi	r3,r2,1
   250a0:	28c00015 	stw	r3,0(r5)
   250a4:	10800003 	ldbu	r2,0(r2)
   250a8:	dfc00217 	ldw	ra,8(sp)
   250ac:	dc000117 	ldw	r16,4(sp)
   250b0:	dec00304 	addi	sp,sp,12
   250b4:	f800283a 	ret
   250b8:	d9400015 	stw	r5,0(sp)
   250bc:	002a6340 	call	2a634 <__sinit>
   250c0:	d9400017 	ldw	r5,0(sp)
   250c4:	003ff006 	br	25088 <__alt_data_end+0xfffe5088>
   250c8:	8009883a 	mov	r4,r16
   250cc:	dfc00217 	ldw	ra,8(sp)
   250d0:	dc000117 	ldw	r16,4(sp)
   250d4:	dec00304 	addi	sp,sp,12
   250d8:	002602c1 	jmpi	2602c <__srget_r>

000250dc <getc>:
   250dc:	008000f4 	movhi	r2,3
   250e0:	defffd04 	addi	sp,sp,-12
   250e4:	10994004 	addi	r2,r2,25856
   250e8:	dc400115 	stw	r17,4(sp)
   250ec:	14400017 	ldw	r17,0(r2)
   250f0:	dc000015 	stw	r16,0(sp)
   250f4:	dfc00215 	stw	ra,8(sp)
   250f8:	2021883a 	mov	r16,r4
   250fc:	88000226 	beq	r17,zero,25108 <getc+0x2c>
   25100:	88800e17 	ldw	r2,56(r17)
   25104:	10000d26 	beq	r2,zero,2513c <getc+0x60>
   25108:	80800117 	ldw	r2,4(r16)
   2510c:	10bfffc4 	addi	r2,r2,-1
   25110:	80800115 	stw	r2,4(r16)
   25114:	10000c16 	blt	r2,zero,25148 <getc+0x6c>
   25118:	80800017 	ldw	r2,0(r16)
   2511c:	10c00044 	addi	r3,r2,1
   25120:	80c00015 	stw	r3,0(r16)
   25124:	10800003 	ldbu	r2,0(r2)
   25128:	dfc00217 	ldw	ra,8(sp)
   2512c:	dc400117 	ldw	r17,4(sp)
   25130:	dc000017 	ldw	r16,0(sp)
   25134:	dec00304 	addi	sp,sp,12
   25138:	f800283a 	ret
   2513c:	8809883a 	mov	r4,r17
   25140:	002a6340 	call	2a634 <__sinit>
   25144:	003ff006 	br	25108 <__alt_data_end+0xfffe5108>
   25148:	800b883a 	mov	r5,r16
   2514c:	8809883a 	mov	r4,r17
   25150:	dfc00217 	ldw	ra,8(sp)
   25154:	dc400117 	ldw	r17,4(sp)
   25158:	dc000017 	ldw	r16,0(sp)
   2515c:	dec00304 	addi	sp,sp,12
   25160:	002602c1 	jmpi	2602c <__srget_r>

00025164 <__smakebuf_r>:
   25164:	2880030b 	ldhu	r2,12(r5)
   25168:	10c0008c 	andi	r3,r2,2
   2516c:	1800411e 	bne	r3,zero,25274 <__smakebuf_r+0x110>
   25170:	deffec04 	addi	sp,sp,-80
   25174:	dc000f15 	stw	r16,60(sp)
   25178:	2821883a 	mov	r16,r5
   2517c:	2940038f 	ldh	r5,14(r5)
   25180:	dc401015 	stw	r17,64(sp)
   25184:	dfc01315 	stw	ra,76(sp)
   25188:	dcc01215 	stw	r19,72(sp)
   2518c:	dc801115 	stw	r18,68(sp)
   25190:	2023883a 	mov	r17,r4
   25194:	28001c16 	blt	r5,zero,25208 <__smakebuf_r+0xa4>
   25198:	d80d883a 	mov	r6,sp
   2519c:	00250100 	call	25010 <_fstat_r>
   251a0:	10001816 	blt	r2,zero,25204 <__smakebuf_r+0xa0>
   251a4:	d8800117 	ldw	r2,4(sp)
   251a8:	00e00014 	movui	r3,32768
   251ac:	10bc000c 	andi	r2,r2,61440
   251b0:	14c80020 	cmpeqi	r19,r2,8192
   251b4:	10c03726 	beq	r2,r3,25294 <__smakebuf_r+0x130>
   251b8:	80c0030b 	ldhu	r3,12(r16)
   251bc:	18c20014 	ori	r3,r3,2048
   251c0:	80c0030d 	sth	r3,12(r16)
   251c4:	00c80004 	movi	r3,8192
   251c8:	10c0521e 	bne	r2,r3,25314 <__smakebuf_r+0x1b0>
   251cc:	8140038f 	ldh	r5,14(r16)
   251d0:	8809883a 	mov	r4,r17
   251d4:	002b1a80 	call	2b1a8 <_isatty_r>
   251d8:	10004c26 	beq	r2,zero,2530c <__smakebuf_r+0x1a8>
   251dc:	8080030b 	ldhu	r2,12(r16)
   251e0:	80c010c4 	addi	r3,r16,67
   251e4:	80c00015 	stw	r3,0(r16)
   251e8:	10800054 	ori	r2,r2,1
   251ec:	8080030d 	sth	r2,12(r16)
   251f0:	00800044 	movi	r2,1
   251f4:	80c00415 	stw	r3,16(r16)
   251f8:	80800515 	stw	r2,20(r16)
   251fc:	04810004 	movi	r18,1024
   25200:	00000706 	br	25220 <__smakebuf_r+0xbc>
   25204:	8080030b 	ldhu	r2,12(r16)
   25208:	10c0200c 	andi	r3,r2,128
   2520c:	18001f1e 	bne	r3,zero,2528c <__smakebuf_r+0x128>
   25210:	04810004 	movi	r18,1024
   25214:	10820014 	ori	r2,r2,2048
   25218:	8080030d 	sth	r2,12(r16)
   2521c:	0027883a 	mov	r19,zero
   25220:	900b883a 	mov	r5,r18
   25224:	8809883a 	mov	r4,r17
   25228:	00253480 	call	25348 <_malloc_r>
   2522c:	10002c26 	beq	r2,zero,252e0 <__smakebuf_r+0x17c>
   25230:	80c0030b 	ldhu	r3,12(r16)
   25234:	010000f4 	movhi	r4,3
   25238:	2128bb04 	addi	r4,r4,-23828
   2523c:	89000f15 	stw	r4,60(r17)
   25240:	18c02014 	ori	r3,r3,128
   25244:	80c0030d 	sth	r3,12(r16)
   25248:	80800015 	stw	r2,0(r16)
   2524c:	80800415 	stw	r2,16(r16)
   25250:	84800515 	stw	r18,20(r16)
   25254:	98001a1e 	bne	r19,zero,252c0 <__smakebuf_r+0x15c>
   25258:	dfc01317 	ldw	ra,76(sp)
   2525c:	dcc01217 	ldw	r19,72(sp)
   25260:	dc801117 	ldw	r18,68(sp)
   25264:	dc401017 	ldw	r17,64(sp)
   25268:	dc000f17 	ldw	r16,60(sp)
   2526c:	dec01404 	addi	sp,sp,80
   25270:	f800283a 	ret
   25274:	288010c4 	addi	r2,r5,67
   25278:	28800015 	stw	r2,0(r5)
   2527c:	28800415 	stw	r2,16(r5)
   25280:	00800044 	movi	r2,1
   25284:	28800515 	stw	r2,20(r5)
   25288:	f800283a 	ret
   2528c:	04801004 	movi	r18,64
   25290:	003fe006 	br	25214 <__alt_data_end+0xfffe5214>
   25294:	81000a17 	ldw	r4,40(r16)
   25298:	00c000b4 	movhi	r3,2
   2529c:	18d87804 	addi	r3,r3,25056
   252a0:	20ffc51e 	bne	r4,r3,251b8 <__alt_data_end+0xfffe51b8>
   252a4:	8080030b 	ldhu	r2,12(r16)
   252a8:	04810004 	movi	r18,1024
   252ac:	84801315 	stw	r18,76(r16)
   252b0:	1484b03a 	or	r2,r2,r18
   252b4:	8080030d 	sth	r2,12(r16)
   252b8:	0027883a 	mov	r19,zero
   252bc:	003fd806 	br	25220 <__alt_data_end+0xfffe5220>
   252c0:	8140038f 	ldh	r5,14(r16)
   252c4:	8809883a 	mov	r4,r17
   252c8:	002b1a80 	call	2b1a8 <_isatty_r>
   252cc:	103fe226 	beq	r2,zero,25258 <__alt_data_end+0xfffe5258>
   252d0:	8080030b 	ldhu	r2,12(r16)
   252d4:	10800054 	ori	r2,r2,1
   252d8:	8080030d 	sth	r2,12(r16)
   252dc:	003fde06 	br	25258 <__alt_data_end+0xfffe5258>
   252e0:	8080030b 	ldhu	r2,12(r16)
   252e4:	10c0800c 	andi	r3,r2,512
   252e8:	183fdb1e 	bne	r3,zero,25258 <__alt_data_end+0xfffe5258>
   252ec:	10800094 	ori	r2,r2,2
   252f0:	80c010c4 	addi	r3,r16,67
   252f4:	8080030d 	sth	r2,12(r16)
   252f8:	00800044 	movi	r2,1
   252fc:	80c00015 	stw	r3,0(r16)
   25300:	80c00415 	stw	r3,16(r16)
   25304:	80800515 	stw	r2,20(r16)
   25308:	003fd306 	br	25258 <__alt_data_end+0xfffe5258>
   2530c:	04810004 	movi	r18,1024
   25310:	003fc306 	br	25220 <__alt_data_end+0xfffe5220>
   25314:	0027883a 	mov	r19,zero
   25318:	04810004 	movi	r18,1024
   2531c:	003fc006 	br	25220 <__alt_data_end+0xfffe5220>

00025320 <malloc>:
   25320:	008000f4 	movhi	r2,3
   25324:	10994004 	addi	r2,r2,25856
   25328:	200b883a 	mov	r5,r4
   2532c:	11000017 	ldw	r4,0(r2)
   25330:	00253481 	jmpi	25348 <_malloc_r>

00025334 <free>:
   25334:	008000f4 	movhi	r2,3
   25338:	10994004 	addi	r2,r2,25856
   2533c:	200b883a 	mov	r5,r4
   25340:	11000017 	ldw	r4,0(r2)
   25344:	002a8541 	jmpi	2a854 <_free_r>

00025348 <_malloc_r>:
   25348:	defff504 	addi	sp,sp,-44
   2534c:	dc800315 	stw	r18,12(sp)
   25350:	dfc00a15 	stw	ra,40(sp)
   25354:	df000915 	stw	fp,36(sp)
   25358:	ddc00815 	stw	r23,32(sp)
   2535c:	dd800715 	stw	r22,28(sp)
   25360:	dd400615 	stw	r21,24(sp)
   25364:	dd000515 	stw	r20,20(sp)
   25368:	dcc00415 	stw	r19,16(sp)
   2536c:	dc400215 	stw	r17,8(sp)
   25370:	dc000115 	stw	r16,4(sp)
   25374:	288002c4 	addi	r2,r5,11
   25378:	00c00584 	movi	r3,22
   2537c:	2025883a 	mov	r18,r4
   25380:	18807f2e 	bgeu	r3,r2,25580 <_malloc_r+0x238>
   25384:	047ffe04 	movi	r17,-8
   25388:	1462703a 	and	r17,r2,r17
   2538c:	8800a316 	blt	r17,zero,2561c <_malloc_r+0x2d4>
   25390:	8940a236 	bltu	r17,r5,2561c <_malloc_r+0x2d4>
   25394:	0030a500 	call	30a50 <__malloc_lock>
   25398:	00807dc4 	movi	r2,503
   2539c:	1441e92e 	bgeu	r2,r17,25b44 <_malloc_r+0x7fc>
   253a0:	8804d27a 	srli	r2,r17,9
   253a4:	1000a126 	beq	r2,zero,2562c <_malloc_r+0x2e4>
   253a8:	00c00104 	movi	r3,4
   253ac:	18811e36 	bltu	r3,r2,25828 <_malloc_r+0x4e0>
   253b0:	8804d1ba 	srli	r2,r17,6
   253b4:	12000e44 	addi	r8,r2,57
   253b8:	11c00e04 	addi	r7,r2,56
   253bc:	4209883a 	add	r4,r8,r8
   253c0:	04c000f4 	movhi	r19,3
   253c4:	2109883a 	add	r4,r4,r4
   253c8:	9cd36704 	addi	r19,r19,19868
   253cc:	2109883a 	add	r4,r4,r4
   253d0:	9909883a 	add	r4,r19,r4
   253d4:	24000117 	ldw	r16,4(r4)
   253d8:	213ffe04 	addi	r4,r4,-8
   253dc:	24009726 	beq	r4,r16,2563c <_malloc_r+0x2f4>
   253e0:	80800117 	ldw	r2,4(r16)
   253e4:	01bfff04 	movi	r6,-4
   253e8:	014003c4 	movi	r5,15
   253ec:	1184703a 	and	r2,r2,r6
   253f0:	1447c83a 	sub	r3,r2,r17
   253f4:	28c00716 	blt	r5,r3,25414 <_malloc_r+0xcc>
   253f8:	1800920e 	bge	r3,zero,25644 <_malloc_r+0x2fc>
   253fc:	84000317 	ldw	r16,12(r16)
   25400:	24008e26 	beq	r4,r16,2563c <_malloc_r+0x2f4>
   25404:	80800117 	ldw	r2,4(r16)
   25408:	1184703a 	and	r2,r2,r6
   2540c:	1447c83a 	sub	r3,r2,r17
   25410:	28fff90e 	bge	r5,r3,253f8 <__alt_data_end+0xfffe53f8>
   25414:	3809883a 	mov	r4,r7
   25418:	018000f4 	movhi	r6,3
   2541c:	9c000417 	ldw	r16,16(r19)
   25420:	31936704 	addi	r6,r6,19868
   25424:	32000204 	addi	r8,r6,8
   25428:	82013426 	beq	r16,r8,258fc <_malloc_r+0x5b4>
   2542c:	80c00117 	ldw	r3,4(r16)
   25430:	00bfff04 	movi	r2,-4
   25434:	188e703a 	and	r7,r3,r2
   25438:	3c45c83a 	sub	r2,r7,r17
   2543c:	00c003c4 	movi	r3,15
   25440:	18811f16 	blt	r3,r2,258c0 <_malloc_r+0x578>
   25444:	32000515 	stw	r8,20(r6)
   25448:	32000415 	stw	r8,16(r6)
   2544c:	10007f0e 	bge	r2,zero,2564c <_malloc_r+0x304>
   25450:	00807fc4 	movi	r2,511
   25454:	11c0fd36 	bltu	r2,r7,2584c <_malloc_r+0x504>
   25458:	3806d0fa 	srli	r3,r7,3
   2545c:	01c00044 	movi	r7,1
   25460:	30800117 	ldw	r2,4(r6)
   25464:	19400044 	addi	r5,r3,1
   25468:	294b883a 	add	r5,r5,r5
   2546c:	1807d0ba 	srai	r3,r3,2
   25470:	294b883a 	add	r5,r5,r5
   25474:	294b883a 	add	r5,r5,r5
   25478:	298b883a 	add	r5,r5,r6
   2547c:	38c6983a 	sll	r3,r7,r3
   25480:	29c00017 	ldw	r7,0(r5)
   25484:	2a7ffe04 	addi	r9,r5,-8
   25488:	1886b03a 	or	r3,r3,r2
   2548c:	82400315 	stw	r9,12(r16)
   25490:	81c00215 	stw	r7,8(r16)
   25494:	30c00115 	stw	r3,4(r6)
   25498:	2c000015 	stw	r16,0(r5)
   2549c:	3c000315 	stw	r16,12(r7)
   254a0:	2005d0ba 	srai	r2,r4,2
   254a4:	01400044 	movi	r5,1
   254a8:	288a983a 	sll	r5,r5,r2
   254ac:	19406f36 	bltu	r3,r5,2566c <_malloc_r+0x324>
   254b0:	28c4703a 	and	r2,r5,r3
   254b4:	10000a1e 	bne	r2,zero,254e0 <_malloc_r+0x198>
   254b8:	00bfff04 	movi	r2,-4
   254bc:	294b883a 	add	r5,r5,r5
   254c0:	2088703a 	and	r4,r4,r2
   254c4:	28c4703a 	and	r2,r5,r3
   254c8:	21000104 	addi	r4,r4,4
   254cc:	1000041e 	bne	r2,zero,254e0 <_malloc_r+0x198>
   254d0:	294b883a 	add	r5,r5,r5
   254d4:	28c4703a 	and	r2,r5,r3
   254d8:	21000104 	addi	r4,r4,4
   254dc:	103ffc26 	beq	r2,zero,254d0 <__alt_data_end+0xfffe54d0>
   254e0:	02bfff04 	movi	r10,-4
   254e4:	024003c4 	movi	r9,15
   254e8:	21800044 	addi	r6,r4,1
   254ec:	318d883a 	add	r6,r6,r6
   254f0:	318d883a 	add	r6,r6,r6
   254f4:	318d883a 	add	r6,r6,r6
   254f8:	998d883a 	add	r6,r19,r6
   254fc:	333ffe04 	addi	r12,r6,-8
   25500:	2017883a 	mov	r11,r4
   25504:	31800104 	addi	r6,r6,4
   25508:	34000017 	ldw	r16,0(r6)
   2550c:	31fffd04 	addi	r7,r6,-12
   25510:	81c0041e 	bne	r16,r7,25524 <_malloc_r+0x1dc>
   25514:	0000fb06 	br	25904 <_malloc_r+0x5bc>
   25518:	1801030e 	bge	r3,zero,25928 <_malloc_r+0x5e0>
   2551c:	84000317 	ldw	r16,12(r16)
   25520:	81c0f826 	beq	r16,r7,25904 <_malloc_r+0x5bc>
   25524:	80800117 	ldw	r2,4(r16)
   25528:	1284703a 	and	r2,r2,r10
   2552c:	1447c83a 	sub	r3,r2,r17
   25530:	48fff90e 	bge	r9,r3,25518 <__alt_data_end+0xfffe5518>
   25534:	80800317 	ldw	r2,12(r16)
   25538:	81000217 	ldw	r4,8(r16)
   2553c:	89400054 	ori	r5,r17,1
   25540:	81400115 	stw	r5,4(r16)
   25544:	20800315 	stw	r2,12(r4)
   25548:	11000215 	stw	r4,8(r2)
   2554c:	8463883a 	add	r17,r16,r17
   25550:	9c400515 	stw	r17,20(r19)
   25554:	9c400415 	stw	r17,16(r19)
   25558:	18800054 	ori	r2,r3,1
   2555c:	88800115 	stw	r2,4(r17)
   25560:	8a000315 	stw	r8,12(r17)
   25564:	8a000215 	stw	r8,8(r17)
   25568:	88e3883a 	add	r17,r17,r3
   2556c:	88c00015 	stw	r3,0(r17)
   25570:	9009883a 	mov	r4,r18
   25574:	0030a740 	call	30a74 <__malloc_unlock>
   25578:	80800204 	addi	r2,r16,8
   2557c:	00001b06 	br	255ec <_malloc_r+0x2a4>
   25580:	04400404 	movi	r17,16
   25584:	89402536 	bltu	r17,r5,2561c <_malloc_r+0x2d4>
   25588:	0030a500 	call	30a50 <__malloc_lock>
   2558c:	00800184 	movi	r2,6
   25590:	01000084 	movi	r4,2
   25594:	04c000f4 	movhi	r19,3
   25598:	1085883a 	add	r2,r2,r2
   2559c:	9cd36704 	addi	r19,r19,19868
   255a0:	1085883a 	add	r2,r2,r2
   255a4:	9885883a 	add	r2,r19,r2
   255a8:	14000117 	ldw	r16,4(r2)
   255ac:	10fffe04 	addi	r3,r2,-8
   255b0:	80c0d926 	beq	r16,r3,25918 <_malloc_r+0x5d0>
   255b4:	80c00117 	ldw	r3,4(r16)
   255b8:	81000317 	ldw	r4,12(r16)
   255bc:	00bfff04 	movi	r2,-4
   255c0:	1884703a 	and	r2,r3,r2
   255c4:	81400217 	ldw	r5,8(r16)
   255c8:	8085883a 	add	r2,r16,r2
   255cc:	10c00117 	ldw	r3,4(r2)
   255d0:	29000315 	stw	r4,12(r5)
   255d4:	21400215 	stw	r5,8(r4)
   255d8:	18c00054 	ori	r3,r3,1
   255dc:	10c00115 	stw	r3,4(r2)
   255e0:	9009883a 	mov	r4,r18
   255e4:	0030a740 	call	30a74 <__malloc_unlock>
   255e8:	80800204 	addi	r2,r16,8
   255ec:	dfc00a17 	ldw	ra,40(sp)
   255f0:	df000917 	ldw	fp,36(sp)
   255f4:	ddc00817 	ldw	r23,32(sp)
   255f8:	dd800717 	ldw	r22,28(sp)
   255fc:	dd400617 	ldw	r21,24(sp)
   25600:	dd000517 	ldw	r20,20(sp)
   25604:	dcc00417 	ldw	r19,16(sp)
   25608:	dc800317 	ldw	r18,12(sp)
   2560c:	dc400217 	ldw	r17,8(sp)
   25610:	dc000117 	ldw	r16,4(sp)
   25614:	dec00b04 	addi	sp,sp,44
   25618:	f800283a 	ret
   2561c:	00800304 	movi	r2,12
   25620:	90800015 	stw	r2,0(r18)
   25624:	0005883a 	mov	r2,zero
   25628:	003ff006 	br	255ec <__alt_data_end+0xfffe55ec>
   2562c:	01002004 	movi	r4,128
   25630:	02001004 	movi	r8,64
   25634:	01c00fc4 	movi	r7,63
   25638:	003f6106 	br	253c0 <__alt_data_end+0xfffe53c0>
   2563c:	4009883a 	mov	r4,r8
   25640:	003f7506 	br	25418 <__alt_data_end+0xfffe5418>
   25644:	81000317 	ldw	r4,12(r16)
   25648:	003fde06 	br	255c4 <__alt_data_end+0xfffe55c4>
   2564c:	81c5883a 	add	r2,r16,r7
   25650:	11400117 	ldw	r5,4(r2)
   25654:	9009883a 	mov	r4,r18
   25658:	29400054 	ori	r5,r5,1
   2565c:	11400115 	stw	r5,4(r2)
   25660:	0030a740 	call	30a74 <__malloc_unlock>
   25664:	80800204 	addi	r2,r16,8
   25668:	003fe006 	br	255ec <__alt_data_end+0xfffe55ec>
   2566c:	9c000217 	ldw	r16,8(r19)
   25670:	00bfff04 	movi	r2,-4
   25674:	85800117 	ldw	r22,4(r16)
   25678:	b0ac703a 	and	r22,r22,r2
   2567c:	b4400336 	bltu	r22,r17,2568c <_malloc_r+0x344>
   25680:	b445c83a 	sub	r2,r22,r17
   25684:	00c003c4 	movi	r3,15
   25688:	18805d16 	blt	r3,r2,25800 <_malloc_r+0x4b8>
   2568c:	05c000f4 	movhi	r23,3
   25690:	00800134 	movhi	r2,4
   25694:	10a23104 	addi	r2,r2,-30524
   25698:	bdd94104 	addi	r23,r23,25860
   2569c:	15400017 	ldw	r21,0(r2)
   256a0:	b8c00017 	ldw	r3,0(r23)
   256a4:	00bfffc4 	movi	r2,-1
   256a8:	858d883a 	add	r6,r16,r22
   256ac:	8d6b883a 	add	r21,r17,r21
   256b0:	1880ea26 	beq	r3,r2,25a5c <_malloc_r+0x714>
   256b4:	ad4403c4 	addi	r21,r21,4111
   256b8:	00bc0004 	movi	r2,-4096
   256bc:	a8aa703a 	and	r21,r21,r2
   256c0:	a80b883a 	mov	r5,r21
   256c4:	9009883a 	mov	r4,r18
   256c8:	d9800015 	stw	r6,0(sp)
   256cc:	00260b40 	call	260b4 <_sbrk_r>
   256d0:	1029883a 	mov	r20,r2
   256d4:	00bfffc4 	movi	r2,-1
   256d8:	d9800017 	ldw	r6,0(sp)
   256dc:	a080e826 	beq	r20,r2,25a80 <_malloc_r+0x738>
   256e0:	a180a636 	bltu	r20,r6,2597c <_malloc_r+0x634>
   256e4:	07000134 	movhi	fp,4
   256e8:	e7223c04 	addi	fp,fp,-30480
   256ec:	e0800017 	ldw	r2,0(fp)
   256f0:	a887883a 	add	r3,r21,r2
   256f4:	e0c00015 	stw	r3,0(fp)
   256f8:	3500e626 	beq	r6,r20,25a94 <_malloc_r+0x74c>
   256fc:	b9000017 	ldw	r4,0(r23)
   25700:	00bfffc4 	movi	r2,-1
   25704:	2080ee26 	beq	r4,r2,25ac0 <_malloc_r+0x778>
   25708:	a185c83a 	sub	r2,r20,r6
   2570c:	10c5883a 	add	r2,r2,r3
   25710:	e0800015 	stw	r2,0(fp)
   25714:	a0c001cc 	andi	r3,r20,7
   25718:	1800bc26 	beq	r3,zero,25a0c <_malloc_r+0x6c4>
   2571c:	a0e9c83a 	sub	r20,r20,r3
   25720:	00840204 	movi	r2,4104
   25724:	a5000204 	addi	r20,r20,8
   25728:	10c7c83a 	sub	r3,r2,r3
   2572c:	a545883a 	add	r2,r20,r21
   25730:	1083ffcc 	andi	r2,r2,4095
   25734:	18abc83a 	sub	r21,r3,r2
   25738:	a80b883a 	mov	r5,r21
   2573c:	9009883a 	mov	r4,r18
   25740:	00260b40 	call	260b4 <_sbrk_r>
   25744:	00ffffc4 	movi	r3,-1
   25748:	10c0e126 	beq	r2,r3,25ad0 <_malloc_r+0x788>
   2574c:	1505c83a 	sub	r2,r2,r20
   25750:	1545883a 	add	r2,r2,r21
   25754:	10800054 	ori	r2,r2,1
   25758:	e0c00017 	ldw	r3,0(fp)
   2575c:	9d000215 	stw	r20,8(r19)
   25760:	a0800115 	stw	r2,4(r20)
   25764:	a8c7883a 	add	r3,r21,r3
   25768:	e0c00015 	stw	r3,0(fp)
   2576c:	84c00e26 	beq	r16,r19,257a8 <_malloc_r+0x460>
   25770:	018003c4 	movi	r6,15
   25774:	3580a72e 	bgeu	r6,r22,25a14 <_malloc_r+0x6cc>
   25778:	81400117 	ldw	r5,4(r16)
   2577c:	013ffe04 	movi	r4,-8
   25780:	b0bffd04 	addi	r2,r22,-12
   25784:	1104703a 	and	r2,r2,r4
   25788:	2900004c 	andi	r4,r5,1
   2578c:	2088b03a 	or	r4,r4,r2
